
vga_demo.elf:     file format elf32-littlenios2
vga_demo.elf
architecture: nios2, flags 0x00000112:
EXEC_P, HAS_SYMS, D_PAGED
start address 0x010001b4

Program Header:
    LOAD off    0x00001000 vaddr 0x01000000 paddr 0x01000000 align 2**12
         filesz 0x00000020 memsz 0x00000020 flags r-x
    LOAD off    0x00001020 vaddr 0x01000020 paddr 0x01000020 align 2**12
         filesz 0x00012a50 memsz 0x00012a50 flags r-x
    LOAD off    0x00013a70 vaddr 0x01012a70 paddr 0x01014594 align 2**12
         filesz 0x00001b24 memsz 0x00001b24 flags rw-
    LOAD off    0x000160b8 vaddr 0x010160b8 paddr 0x010160b8 align 2**12
         filesz 0x00000000 memsz 0x000002ec flags rw-

Sections:
Idx Name          Size      VMA       LMA       File off  Algn
  0 .entry        00000020  01000000  01000000  00001000  2**5
                  CONTENTS, ALLOC, LOAD, READONLY, CODE
  1 .exceptions   00000194  01000020  01000020  00001020  2**2
                  CONTENTS, ALLOC, LOAD, READONLY, CODE
  2 .text         00012204  010001b4  010001b4  000011b4  2**2
                  CONTENTS, ALLOC, LOAD, READONLY, CODE
  3 .rodata       000006b8  010123b8  010123b8  000133b8  2**2
                  CONTENTS, ALLOC, LOAD, READONLY, DATA
  4 .rwdata       00001b24  01012a70  01014594  00013a70  2**2
                  CONTENTS, ALLOC, LOAD, DATA, SMALL_DATA
  5 .bss          000002ec  010160b8  010160b8  000160b8  2**2
                  ALLOC, SMALL_DATA
  6 .comment      00000026  00000000  00000000  00015594  2**0
                  CONTENTS, READONLY
  7 .debug_aranges 00000f98  00000000  00000000  000155c0  2**3
                  CONTENTS, READONLY, DEBUGGING
  8 .debug_pubnames 00001b12  00000000  00000000  00016558  2**0
                  CONTENTS, READONLY, DEBUGGING
  9 .debug_info   0002884f  00000000  00000000  0001806a  2**0
                  CONTENTS, READONLY, DEBUGGING
 10 .debug_abbrev 000093fc  00000000  00000000  000408b9  2**0
                  CONTENTS, READONLY, DEBUGGING
 11 .debug_line   0001878e  00000000  00000000  00049cb5  2**0
                  CONTENTS, READONLY, DEBUGGING
 12 .debug_frame  000020a4  00000000  00000000  00062444  2**2
                  CONTENTS, READONLY, DEBUGGING
 13 .debug_str    000029cf  00000000  00000000  000644e8  2**0
                  CONTENTS, READONLY, DEBUGGING
 14 .debug_loc    0000e13e  00000000  00000000  00066eb7  2**0
                  CONTENTS, READONLY, DEBUGGING
 15 .debug_alt_sim_info 00000050  00000000  00000000  00074ff8  2**2
                  CONTENTS, READONLY, DEBUGGING
 16 .debug_ranges 00000a98  00000000  00000000  00075048  2**3
                  CONTENTS, READONLY, DEBUGGING
 17 .thread_model 00000003  00000000  00000000  0007956a  2**0
                  CONTENTS, READONLY
 18 .cpu          0000000f  00000000  00000000  0007956d  2**0
                  CONTENTS, READONLY
 19 .qsys         00000001  00000000  00000000  0007957c  2**0
                  CONTENTS, READONLY
 20 .simulation_enabled 00000001  00000000  00000000  0007957d  2**0
                  CONTENTS, READONLY
 21 .stderr_dev   0000000b  00000000  00000000  0007957e  2**0
                  CONTENTS, READONLY
 22 .stdin_dev    0000000b  00000000  00000000  00079589  2**0
                  CONTENTS, READONLY
 23 .stdout_dev   0000000b  00000000  00000000  00079594  2**0
                  CONTENTS, READONLY
 24 .sopc_system_name 0000000b  00000000  00000000  0007959f  2**0
                  CONTENTS, READONLY
 25 .quartus_project_dir 0000002a  00000000  00000000  000795aa  2**0
                  CONTENTS, READONLY
 26 .jdi          00005b37  00000000  00000000  000795d4  2**0
                  CONTENTS, READONLY
 27 .sopcinfo     00069a19  00000000  00000000  0007f10b  2**0
                  CONTENTS, READONLY
SYMBOL TABLE:
01000000 l    d  .entry	00000000 .entry
01000020 l    d  .exceptions	00000000 .exceptions
010001b4 l    d  .text	00000000 .text
010123b8 l    d  .rodata	00000000 .rodata
01012a70 l    d  .rwdata	00000000 .rwdata
010160b8 l    d  .bss	00000000 .bss
00000000 l    d  .comment	00000000 .comment
00000000 l    d  .debug_aranges	00000000 .debug_aranges
00000000 l    d  .debug_pubnames	00000000 .debug_pubnames
00000000 l    d  .debug_info	00000000 .debug_info
00000000 l    d  .debug_abbrev	00000000 .debug_abbrev
00000000 l    d  .debug_line	00000000 .debug_line
00000000 l    d  .debug_frame	00000000 .debug_frame
00000000 l    d  .debug_str	00000000 .debug_str
00000000 l    d  .debug_loc	00000000 .debug_loc
00000000 l    d  .debug_alt_sim_info	00000000 .debug_alt_sim_info
00000000 l    d  .debug_ranges	00000000 .debug_ranges
010001ec l       .text	00000000 alt_after_alt_main
00000000 l    df *ABS*	00000000 alt_irq_handler.c
00000000 l    df *ABS*	00000000 queue_type.c
00000000 l    df *ABS*	00000000 vga_demo.c
00000000 l    df *ABS*	00000000 s_cos.c
00000000 l    df *ABS*	00000000 s_sin.c
00000000 l    df *ABS*	00000000 e_rem_pio2.c
0101254c l     O .rodata	00000108 two_over_pi
010124cc l     O .rodata	00000080 npio2_hw
00000000 l    df *ABS*	00000000 k_cos.c
00000000 l    df *ABS*	00000000 k_rem_pio2.c
01012654 l     O .rodata	00000010 init_jk
01012664 l     O .rodata	00000040 PIo2
00000000 l    df *ABS*	00000000 k_sin.c
00000000 l    df *ABS*	00000000 s_fabs.c
00000000 l    df *ABS*	00000000 s_floor.c
00000000 l    df *ABS*	00000000 s_scalbn.c
00000000 l    df *ABS*	00000000 s_copysign.c
00000000 l    df *ABS*	00000000 fp-bit.c
010035bc l     F .text	000001e4 _fpadd_parts
00000000 l    df *ABS*	00000000 fp-bit.c
00000000 l    df *ABS*	00000000 fp-bit.c
00000000 l    df *ABS*	00000000 fp-bit.c
00000000 l    df *ABS*	00000000 fp-bit.c
00000000 l    df *ABS*	00000000 dp-bit.c
010039b8 l     F .text	00000410 _fpadd_parts
00000000 l    df *ABS*	00000000 dp-bit.c
00000000 l    df *ABS*	00000000 dp-bit.c
00000000 l    df *ABS*	00000000 dp-bit.c
00000000 l    df *ABS*	00000000 dp-bit.c
00000000 l    df *ABS*	00000000 dp-bit.c
00000000 l    df *ABS*	00000000 dp-bit.c
00000000 l    df *ABS*	00000000 dp-bit.c
00000000 l    df *ABS*	00000000 dp-bit.c
00000000 l    df *ABS*	00000000 lib2-divmod.c
01004620 l     F .text	0000007c udivmodsi4
00000000 l    df *ABS*	00000000 lib2-mul.c
00000000 l    df *ABS*	00000000 libgcc2.c
00000000 l    df *ABS*	00000000 libgcc2.c
00000000 l    df *ABS*	00000000 fp-bit.c
00000000 l    df *ABS*	00000000 fp-bit.c
00000000 l    df *ABS*	00000000 fp-bit.c
00000000 l    df *ABS*	00000000 dp-bit.c
00000000 l    df *ABS*	00000000 dp-bit.c
00000000 l    df *ABS*	00000000 dp-bit.c
00000000 l    df *ABS*	00000000 libgcc2.c
00000000 l    df *ABS*	00000000 malloc.c
00000000 l    df *ABS*	00000000 mallocr.c
00000000 l    df *ABS*	00000000 printf.c
00000000 l    df *ABS*	00000000 puts.c
00000000 l    df *ABS*	00000000 sbrkr.c
00000000 l    df *ABS*	00000000 strlen.c
00000000 l    df *ABS*	00000000 vfprintf.c
01005aa4 l     F .text	00000058 __sprint_r
0101283a l     O .rodata	00000010 blanks.3452
0101282a l     O .rodata	00000010 zeroes.3453
00000000 l    df *ABS*	00000000 wsetup.c
00000000 l    df *ABS*	00000000 dtoa.c
01007b20 l     F .text	00000244 quorem
00000000 l    df *ABS*	00000000 fflush.c
00000000 l    df *ABS*	00000000 findfp.c
01009548 l     F .text	00000058 std
01009654 l     F .text	00000008 __fp_lock
0100965c l     F .text	00000008 __fp_unlock
00000000 l    df *ABS*	00000000 mallocr.c
00000000 l    df *ABS*	00000000 fvwrite.c
00000000 l    df *ABS*	00000000 fwalk.c
00000000 l    df *ABS*	00000000 impure.c
01012e78 l     O .rwdata	00000400 impure_data
00000000 l    df *ABS*	00000000 int_errno.c
00000000 l    df *ABS*	00000000 locale.c
01014568 l     O .rwdata	00000004 charset
01012870 l     O .rodata	00000030 lconv
00000000 l    df *ABS*	00000000 makebuf.c
00000000 l    df *ABS*	00000000 memchr.c
00000000 l    df *ABS*	00000000 memcpy.c
00000000 l    df *ABS*	00000000 memmove.c
00000000 l    df *ABS*	00000000 memset.c
00000000 l    df *ABS*	00000000 mprec.c
010129b8 l     O .rodata	0000000c p05.2458
00000000 l    df *ABS*	00000000 mallocr.c
00000000 l    df *ABS*	00000000 s_isinfd.c
00000000 l    df *ABS*	00000000 s_isnand.c
00000000 l    df *ABS*	00000000 stdio.c
00000000 l    df *ABS*	00000000 strcmp.c
00000000 l    df *ABS*	00000000 writer.c
00000000 l    df *ABS*	00000000 mallocr.c
00000000 l    df *ABS*	00000000 closer.c
00000000 l    df *ABS*	00000000 fclose.c
00000000 l    df *ABS*	00000000 fstatr.c
00000000 l    df *ABS*	00000000 isattyr.c
00000000 l    df *ABS*	00000000 lseekr.c
00000000 l    df *ABS*	00000000 readr.c
00000000 l    df *ABS*	00000000 libgcc2.c
00000000 l    df *ABS*	00000000 libgcc2.c
00000000 l    df *ABS*	00000000 dp-bit.c
00000000 l    df *ABS*	00000000 dp-bit.c
00000000 l    df *ABS*	00000000 dp-bit.c
00000000 l    df *ABS*	00000000 dp-bit.c
00000000 l    df *ABS*	00000000 alt_close.c
0100d854 l     F .text	00000060 alt_get_errno
00000000 l    df *ABS*	00000000 alt_dev.c
0100d8b4 l     F .text	0000002c alt_dev_null_write
00000000 l    df *ABS*	00000000 alt_errno.c
00000000 l    df *ABS*	00000000 alt_fstat.c
0100d9b8 l     F .text	00000060 alt_get_errno
00000000 l    df *ABS*	00000000 alt_isatty.c
0100dadc l     F .text	00000060 alt_get_errno
00000000 l    df *ABS*	00000000 alt_load.c
0100dbbc l     F .text	0000006c alt_load_section
00000000 l    df *ABS*	00000000 alt_lseek.c
0100dd1c l     F .text	00000060 alt_get_errno
00000000 l    df *ABS*	00000000 alt_main.c
00000000 l    df *ABS*	00000000 alt_malloc_lock.c
00000000 l    df *ABS*	00000000 alt_read.c
0100df4c l     F .text	00000060 alt_get_errno
00000000 l    df *ABS*	00000000 alt_release_fd.c
00000000 l    df *ABS*	00000000 alt_sbrk.c
01014584 l     O .rwdata	00000004 heap_end
00000000 l    df *ABS*	00000000 alt_usleep.c
00000000 l    df *ABS*	00000000 alt_write.c
0100e234 l     F .text	00000060 alt_get_errno
00000000 l    df *ABS*	00000000 alt_sys_init.c
0101342c l     O .rwdata	00001060 jtag_uart_0
0101448c l     O .rwdata	0000002c character_lcd_0
010144b8 l     O .rwdata	00000048 char_drawer
01014500 l     O .rwdata	00000054 pixel_buffer_dma
0100e5d8 l     F .text	00000038 alt_dev_reg
00000000 l    df *ABS*	00000000 altera_avalon_jtag_uart_fd.c
00000000 l    df *ABS*	00000000 altera_avalon_jtag_uart_init.c
0100e818 l     F .text	00000228 altera_avalon_jtag_uart_irq
0100ea40 l     F .text	000000b0 altera_avalon_jtag_uart_timeout
00000000 l    df *ABS*	00000000 altera_avalon_jtag_uart_ioctl.c
00000000 l    df *ABS*	00000000 altera_avalon_jtag_uart_read.c
00000000 l    df *ABS*	00000000 altera_avalon_jtag_uart_write.c
00000000 l    df *ABS*	00000000 altera_up_avalon_character_lcd.c
00000000 l    df *ABS*	00000000 altera_up_avalon_video_character_buffer_with_dma.c
00000000 l    df *ABS*	00000000 altera_up_avalon_video_pixel_buffer_dma.c
00000000 l    df *ABS*	00000000 alt_alarm_start.c
00000000 l    df *ABS*	00000000 alt_busy_sleep.c
00000000 l    df *ABS*	00000000 alt_dcache_flush_all.c
00000000 l    df *ABS*	00000000 alt_dev_llist_insert.c
01011210 l     F .text	00000060 alt_get_errno
00000000 l    df *ABS*	00000000 alt_do_ctors.c
00000000 l    df *ABS*	00000000 alt_do_dtors.c
00000000 l    df *ABS*	00000000 alt_find_dev.c
00000000 l    df *ABS*	00000000 alt_icache_flush_all.c
00000000 l    df *ABS*	00000000 alt_iic.c
00000000 l    df *ABS*	00000000 alt_iic_isr_register.c
00000000 l    df *ABS*	00000000 alt_io_redirect.c
010116c8 l     F .text	000000d8 alt_open_fd
00000000 l    df *ABS*	00000000 alt_irq_vars.c
00000000 l    df *ABS*	00000000 alt_open.c
01011818 l     F .text	000000f8 alt_file_locked
01011a9c l     F .text	00000060 alt_get_errno
00000000 l    df *ABS*	00000000 alt_tick.c
00000000 l    df *ABS*	00000000 altera_nios2_qsys_irq.c
00000000 l    df *ABS*	00000000 alt_find_file.c
00000000 l    df *ABS*	00000000 alt_get_fd.c
00000000 l    df *ABS*	00000000 alt_icache_flush.c
00000000 l    df *ABS*	00000000 atexit.c
00000000 l    df *ABS*	00000000 exit.c
00000000 l    df *ABS*	00000000 memcmp.c
00000000 l    df *ABS*	00000000 __atexit.c
00000000 l    df *ABS*	00000000 __call_atexit.c
01012134 l     F .text	00000004 register_fini
00000000 l    df *ABS*	00000000 alt_exit.c
010122e8 l     F .text	00000040 alt_sim_halt
0100abf8 g     F .text	00000094 _mprec_log10
0100ace4 g     F .text	00000088 __any_on
0100c42c g     F .text	00000070 _isatty_r
01012990 g     O .rodata	00000028 __mprec_tinytens
0100dd7c g     F .text	0000006c alt_main
01010580 g     F .text	000003d8 alt_up_pixel_buffer_dma_draw_vline
0100590c g     F .text	000000a0 _puts_r
01016114 g     O .bss	00000100 alt_irq
0100317c g     F .text	00000018 fabs
0100c49c g     F .text	00000078 _lseek_r
01014594 g       *ABS*	00000000 __flash_rwdata_start
0100f138 g     F .text	00000034 alt_up_character_lcd_send_cmd
01004280 g     F .text	00000088 __eqdf2
01000674 g     F .text	00000140 pulsing_box
010163a4 g       *ABS*	00000000 __alt_heap_start
01005894 g     F .text	00000044 printf
0100bee4 g     F .text	00000068 __sseek
010095b0 g     F .text	000000a4 __sinit
0100f780 g     F .text	00000114 alt_up_char_buffer_string
0100a2bc g     F .text	00000084 _setlocale_r
010096b0 g     F .text	0000009c __sfmoreglue
0100de08 g     F .text	00000020 __malloc_unlock
01000b6c g     F .text	00000338 infinite_spinner
01000400 g     F .text	00000048 is_full
0100f6b0 g     F .text	000000d0 alt_up_char_buffer_draw
0100a674 g     F .text	000000e0 memmove
010096a0 g     F .text	00000010 _cleanup
0100ad6c g     F .text	000000bc _Balloc
0100060c g     F .text	00000068 verbose_dequeue
01000588 g     F .text	00000084 verbose_enqueue
0100f930 g     F .text	000001ac alt_up_pixel_buffer_dma_draw
01004308 g     F .text	00000088 __gtdf2
00000000  w      *UND*	00000000 __errno
0100f0bc g     F .text	0000007c get_DDRAM_addr
0100f8f0 g     F .text	00000040 alt_up_pixel_buffer_dma_open_dev
01000000 g     F .entry	0000001c __reset
01000020 g       *ABS*	00000000 __flash_exceptions_start
0100c3b8 g     F .text	00000074 _fstat_r
010160c4 g     O .bss	00000004 errno
010045e8 g     F .text	00000038 __make_dp
01003194 g     F .text	00000224 floor
0100048c g     F .text	000000fc print_queue
010160d8 g     O .bss	00000004 alt_argv
0101c554 g       *ABS*	00000000 _gp
0100e0e0 g     F .text	00000030 usleep
010037a0 g     F .text	00000070 __subsf3
0100fadc g     F .text	00000058 alt_up_pixel_buffer_dma_change_back_buffer_address
010132ac g     O .rwdata	00000180 alt_fd_list
0100128c g     F .text	00000828 __ieee754_rem_pio2
01011338 g     F .text	00000094 alt_find_dev
0100a5d4 g     F .text	000000a0 memcpy
0100f2d0 g     F .text	0000004c alt_up_character_lcd_write_fd
0100f894 g     F .text	0000005c alt_up_char_buffer_clear
01009694 g     F .text	0000000c _cleanup_r
01004418 g     F .text	000000f8 __floatsidf
010117a0 g     F .text	00000078 alt_io_redirect
0100d538 g     F .text	00000088 __ltdf2
010123b8 g       *ABS*	00000000 __DTOR_END__
010059ac g     F .text	00000014 puts
010007b4 g     F .text	000003b8 spinner
0100ab48 g     F .text	000000b0 __ratio
0100fb8c g     F .text	00000034 alt_up_pixel_buffer_dma_check_swap_buffers_status
0100ec58 g     F .text	00000224 altera_avalon_jtag_uart_read
01005140 g     F .text	00000014 malloc
010058d8 g     F .text	00000034 _printf_r
00000000 g       *ABS*	00000000 __alt_mem_onchip_memory2_0
0100475c g     F .text	00000008 __udivsi3
0100da18 g     F .text	000000c4 isatty
010128a0 g     O .rodata	000000c8 __mprec_tens
01010228 g     F .text	00000358 alt_up_pixel_buffer_dma_draw_hline
0100a298 g     F .text	00000008 __locale_charset
01001ab4 g     F .text	0000052c __kernel_cos
01011eb0 g     F .text	00000090 alt_icache_flush
010160b8 g     O .bss	00000004 __malloc_top_pad
01014564 g     O .rwdata	00000004 __mb_cur_max
0100a2a0 g     F .text	0000000c _localeconv_r
0100b4d0 g     F .text	0000003c __i2b
01009c7c g     F .text	0000049c __sfvwrite_r
010059c0 g     F .text	00000070 _sbrk_r
01010a1c g     F .text	000000d8 helper_plot_pixel
0100c514 g     F .text	00000078 _read_r
01013278 g     O .rwdata	0000000c __lc_ctype
0101457c g     O .rwdata	00000004 alt_max_fd
01004f2c g     F .text	00000138 __unpack_d
0100c294 g     F .text	00000110 _fclose_r
01009514 g     F .text	00000034 fflush
010160bc g     O .bss	00000004 __malloc_max_sbrked_mem
01002e64 g     F .text	00000318 __kernel_sin
01003964 g     F .text	00000054 __extendsfdf2
01003e48 g     F .text	00000074 __adddf3
0100aa28 g     F .text	00000120 __b2d
0100fbc0 g     F .text	0000016c alt_up_pixel_buffer_dma_clear_screen
0100cbf8 g     F .text	00000660 __umoddi3
0100dc28 g     F .text	000000f4 lseek
01014560 g     O .rwdata	00000004 _global_impure_ptr
0100b878 g     F .text	000005f4 _realloc_r
010163a4 g       *ABS*	00000000 __bss_end
010115d0 g     F .text	000000f8 alt_iic_isr_register
0100fd2c g     F .text	000004fc alt_up_pixel_buffer_dma_draw_box
01011b94 g     F .text	0000010c alt_tick
0100c58c g     F .text	0000066c __udivdi3
01012968 g     O .rodata	00000028 __mprec_bigtens
0100b758 g     F .text	00000120 __s2b
0100d5c0 g     F .text	00000194 __floatunsidf
0100a948 g     F .text	00000060 __mcmp
0100967c g     F .text	00000018 __fp_lock_all
01011588 g     F .text	00000048 alt_ic_irq_enabled
01011afc g     F .text	00000098 alt_alarm_stop
010160e0 g     O .bss	00000004 alt_irq_active
010000ec g     F .exceptions	000000c8 alt_irq_handler
01013284 g     O .rwdata	00000028 alt_dev_null
01001fe0 g     F .text	00000e84 __kernel_rem_pio2
01000448 g     F .text	00000044 is_empty
01004aa8 g     F .text	000000c8 __unpack_f
0100f5b8 g     F .text	00000034 alt_up_character_lcd_cursor_blink_on
01011140 g     F .text	0000001c alt_dcache_flush_all
0100a814 g     F .text	00000070 __hi0bits
01010958 g     F .text	000000c4 alt_up_pixel_buffer_dma_draw_rectangle
01004510 g     F .text	000000d8 __fixdfsi
01014594 g       *ABS*	00000000 __ram_rwdata_end
01014574 g     O .rwdata	00000008 alt_dev_list
0100e110 g     F .text	00000124 write
01003874 g     F .text	00000078 __gtsf2
01010af4 g     F .text	0000039c alt_up_pixel_buffer_dma_draw_line
01012a70 g       *ABS*	00000000 __ram_rodata_end
0100d8e0 g     F .text	000000d8 fstat
0100b638 g     F .text	00000120 __pow5mult
010160c8 g     O .bss	00000004 __nlocale_changed
01004764 g     F .text	00000008 __umodsi3
010163a4 g       *ABS*	00000000 end
01004948 g     F .text	00000160 __pack_f
0100f5ec g     F .text	00000084 alt_up_char_buffer_init
0100e758 g     F .text	000000c0 altera_avalon_jtag_uart_init
010123b4 g       *ABS*	00000000 __CTOR_LIST__
01800000 g       *ABS*	00000000 __alt_stack_pointer
010048c8 g     F .text	00000080 __clzsi2
0100ee7c g     F .text	00000240 altera_avalon_jtag_uart_write
01000fb8 g     F .text	00000168 cos
010095a0 g     F .text	00000004 __sfp_lock_acquire
0100a4f0 g     F .text	000000e4 memchr
0100f1e0 g     F .text	00000078 alt_up_character_lcd_write
01005afc g     F .text	00001ec4 ___vfprintf_internal_r
01009968 g     F .text	00000314 _free_r
01012138 g     F .text	000001b0 __call_exitprocs
010160cc g     O .bss	00000004 __mlocale_changed
01014558 g     O .rwdata	00000004 __malloc_sbrk_base
010001b4 g     F .text	0000003c _start
010160e4 g     O .bss	00000004 _alt_tick_rate
01001120 g     F .text	0000016c sin
0100b130 g     F .text	0000014c __lshift
010160e8 g     O .bss	00000004 _alt_nticks
0100de28 g     F .text	00000124 read
0100e2c8 g     F .text	00000310 alt_sys_init
0100f444 g     F .text	000000b0 alt_up_character_lcd_shift_display
01012000 g     F .text	00000134 __register_exitproc
0100b27c g     F .text	00000254 __multiply
0100f4f4 g     F .text	00000090 alt_up_character_lcd_erase_pos
0100eaf0 g     F .text	00000074 altera_avalon_jtag_uart_close
0100476c g     F .text	00000038 __mulsi3
01012a70 g       *ABS*	00000000 __ram_rwdata_start
010123b8 g       *ABS*	00000000 __ram_rodata_start
010160ec g     O .bss	00000028 __malloc_current_mallinfo
0100ae28 g     F .text	0000017c __d2b
0100e610 g     F .text	00000058 altera_avalon_jtag_uart_read_fd
01011de0 g     F .text	000000d0 alt_get_fd
01010fe4 g     F .text	0000015c alt_busy_sleep
01005064 g     F .text	000000c8 __fpcmp_parts_d
0100c224 g     F .text	00000070 _close_r
01011f8c g     F .text	00000074 memcmp
0100e6c0 g     F .text	00000048 altera_avalon_jtag_uart_close_fd
010163a4 g       *ABS*	00000000 __alt_stack_base
0100e708 g     F .text	00000050 altera_avalon_jtag_uart_ioctl_fd
010079e4 g     F .text	0000013c __swsetup_r
0100d258 g     F .text	00000258 __divdf3
0100974c g     F .text	000000f0 __sfp
0100ac8c g     F .text	00000058 __copybits
01012a70 g     O .rwdata	00000408 __malloc_av_
010095ac g     F .text	00000004 __sinit_lock_release
01003ebc g     F .text	000003c4 __muldf3
0100bfc8 g     F .text	00000060 __sread
010126a4 g     O .rodata	00000010 __thenan_sf
01011cc0 g     F .text	00000120 alt_find_file
0101115c g     F .text	000000b4 alt_dev_llist_insert
0100dde8 g     F .text	00000020 __malloc_lock
0100e024 g     F .text	000000bc sbrk
01009318 g     F .text	000001fc _fflush_r
0100c15c g     F .text	000000c8 _calloc_r
010160b8 g       *ABS*	00000000 __bss_start
0100a754 g     F .text	00000098 memset
01000ea4 g     F .text	00000114 main
010160dc g     O .bss	00000004 alt_envp
010160c0 g     O .bss	00000004 __malloc_max_total_mem
0100fb34 g     F .text	00000058 alt_up_pixel_buffer_dma_swap_buffers
0100f670 g     F .text	00000040 alt_up_char_buffer_open_dev
0100e668 g     F .text	00000058 altera_avalon_jtag_uart_write_fd
010038ec g     F .text	00000078 __ltsf2
0100f394 g     F .text	000000b0 alt_up_character_lcd_shift_cursor
0100bedc g     F .text	00000008 __sclose
01800000 g       *ABS*	00000000 __alt_heap_limit
0100c3a4 g     F .text	00000014 fclose
01016214 g     O .bss	00000190 _atexit0
01007d64 g     F .text	000015b4 _dtoa_r
01005154 g     F .text	00000740 _malloc_r
01014580 g     O .rwdata	00000004 alt_errno
0100a1e0 g     F .text	000000b8 _fwalk
0100469c g     F .text	00000060 __divsi3
010126b4 g     O .rodata	00000014 __thenan_df
0100f1a0 g     F .text	00000040 alt_up_character_lcd_open_dev
0100983c g     F .text	0000012c _malloc_trim_r
010123b8 g       *ABS*	00000000 __CTOR_END__
0100f16c g     F .text	00000034 alt_up_character_lcd_init
0100c028 g     F .text	000000bc strcmp
010123b8 g       *ABS*	00000000 __flash_rodata_start
010123b8 g       *ABS*	00000000 __DTOR_LIST__
01003598 g     F .text	00000024 copysign
0100d4b0 g     F .text	00000088 __nedf2
0100e294 g     F .text	00000034 alt_irq_init
0100dfac g     F .text	00000078 alt_release_fd
0100f584 g     F .text	00000034 alt_up_character_lcd_cursor_off
010126c8 g     O .rodata	00000100 __clz_tab
010160d0 g     O .bss	00000004 _PathLocale
01011f40 g     F .text	00000014 atexit
0100c0e4 g     F .text	00000078 _write_r
0100a340 g     F .text	0000001c setlocale
0101455c g     O .rwdata	00000004 _impure_ptr
010160d4 g     O .bss	00000004 alt_argc
010033b8 g     F .text	000001e0 scalbn
010112d4 g     F .text	00000064 _do_dtors
01000020 g       .exceptions	00000000 alt_irq_entry
0100a9a8 g     F .text	00000080 __ulp
0100be6c g     F .text	00000040 __isinfd
01009664 g     F .text	00000018 __fp_unlock_all
0101456c g     O .rwdata	00000008 alt_fs_list
0100026c g     F .text	000000cc enqueue
01000020 g       *ABS*	00000000 __ram_exceptions_start
0100a2ac g     F .text	00000010 localeconv
010113fc g     F .text	00000050 alt_ic_isr_register
01000338 g     F .text	000000c8 dequeue
01014594 g       *ABS*	00000000 _edata
010163a4 g       *ABS*	00000000 _end
010001b4 g       *ABS*	00000000 __ram_exceptions_end
0100eb64 g     F .text	000000f4 altera_avalon_jtag_uart_ioctl
010114e8 g     F .text	000000a0 alt_ic_irq_disable
0100bf4c g     F .text	0000007c __swrite
01014554 g     O .rwdata	00000004 __malloc_trim_threshold
01011ca0 g     F .text	00000020 altera_nios2_qsys_irq_init
01011f54 g     F .text	00000038 exit
0100a118 g     F .text	000000c8 _fwalk_reent
0100afa4 g     F .text	0000018c __mdiff
010046fc g     F .text	00000060 __modsi3
01800000 g       *ABS*	00000000 __alt_data_end
01000020 g     F .exceptions	00000000 alt_exception
010095a4 g     F .text	00000004 __sfp_lock_release
01000000 g       *ABS*	00000000 __alt_mem_sdram
0100f258 g     F .text	00000078 alt_up_character_lcd_string
01004b70 g     F .text	000000a8 __fpcmp_parts_f
01012328 g     F .text	00000020 _exit
0100beac g     F .text	00000030 __isnand
01010e90 g     F .text	00000154 alt_alarm_start
010047a4 g     F .text	00000124 __muldi3
0100a35c g     F .text	00000194 __smakebuf_r
01005a30 g     F .text	00000074 strlen
01011910 g     F .text	0000018c open
01004390 g     F .text	00000088 __gedf2
010113cc g     F .text	00000030 alt_icache_flush_all
0100f31c g     F .text	00000078 alt_up_character_lcd_set_cursor_pos
01014588 g     O .rwdata	00000004 alt_priority_mask
0101144c g     F .text	0000009c alt_ic_irq_enable
010001f0 g     F .text	0000007c queue_new
010079c0 g     F .text	00000024 __vfprintf_internal
01003dc8 g     F .text	00000080 __subdf3
0100a884 g     F .text	000000c4 __lo0bits
0101458c g     O .rwdata	00000008 alt_alarm_list
01011270 g     F .text	00000064 _do_ctors
0100d754 g     F .text	00000100 close
01003810 g     F .text	00000064 __addsf3
0100db3c g     F .text	00000080 alt_load
01004c18 g     F .text	00000314 __pack_d
0100512c g     F .text	00000014 free
010095a8 g     F .text	00000004 __sinit_lock_acquire
0100b50c g     F .text	0000012c __multadd
0100a7ec g     F .text	00000028 _Bfree



Disassembly of section .entry:

01000000 <__reset>:
#if NIOS2_ICACHE_SIZE > 0 && defined(ALT_ALLOW_CODE_AT_RESET) && !defined(ALT_SIM_OPTIMIZE)
    /* Assume the instruction cache size is always a power of two. */
#if NIOS2_ICACHE_SIZE > 0x8000
    movhi r2, %hi(NIOS2_ICACHE_SIZE)
#else
    movui r2, NIOS2_ICACHE_SIZE
 1000000:	00840014 	movui	r2,4096
#endif

0:
    initi r2
 1000004:	1001483a 	initi	r2
    addi r2, r2, -NIOS2_ICACHE_LINE_SIZE
 1000008:	10bff804 	addi	r2,r2,-32
    bgt r2, zero, 0b
 100000c:	00bffd16 	blt	zero,r2,1000004 <__reset+0x4>
 * Jump to the _start entry point in the .text section if reset code
 * is allowed or if optimizing for RTL simulation.
 */
#if defined(ALT_ALLOW_CODE_AT_RESET) || defined(ALT_SIM_OPTIMIZE)
    /* Jump to the _start entry point in the .text section. */
    movhi r1, %hi(_start)
 1000010:	00404034 	movhi	at,256
    ori r1, r1, %lo(_start)
 1000014:	08406d14 	ori	at,at,436
    jmp r1
 1000018:	0800683a 	jmp	at
 100001c:	00000000 	call	0 <__alt_mem_onchip_memory2_0>

Disassembly of section .exceptions:

01000020 <alt_exception>:
         * Process an exception.  For all exceptions we must preserve all
         * caller saved registers on the stack (See the Nios2 ABI
         * documentation for details).
         */

        addi  sp, sp, -76
 1000020:	deffed04 	addi	sp,sp,-76

#endif

#endif

        stw   ra,  0(sp)
 1000024:	dfc00015 	stw	ra,0(sp)
        /*
         * Leave a gap in the stack frame at 4(sp) for the muldiv handler to
         * store zero into.
         */

        stw   r1,   8(sp)
 1000028:	d8400215 	stw	at,8(sp)
        stw   r2,  12(sp)
 100002c:	d8800315 	stw	r2,12(sp)
        stw   r3,  16(sp)
 1000030:	d8c00415 	stw	r3,16(sp)
        stw   r4,  20(sp)
 1000034:	d9000515 	stw	r4,20(sp)
        stw   r5,  24(sp)
 1000038:	d9400615 	stw	r5,24(sp)
        stw   r6,  28(sp)
 100003c:	d9800715 	stw	r6,28(sp)
        stw   r7,  32(sp)
 1000040:	d9c00815 	stw	r7,32(sp)

        rdctl r5, estatus
 1000044:	000b307a 	rdctl	r5,estatus

        stw   r8,  36(sp)
 1000048:	da000915 	stw	r8,36(sp)
        stw   r9,  40(sp)
 100004c:	da400a15 	stw	r9,40(sp)
        stw   r10, 44(sp)
 1000050:	da800b15 	stw	r10,44(sp)
        stw   r11, 48(sp)
 1000054:	dac00c15 	stw	r11,48(sp)
        stw   r12, 52(sp)
 1000058:	db000d15 	stw	r12,52(sp)
        stw   r13, 56(sp)
 100005c:	db400e15 	stw	r13,56(sp)
        stw   r14, 60(sp)
 1000060:	db800f15 	stw	r14,60(sp)
        stw   r15, 64(sp)
 1000064:	dbc01015 	stw	r15,64(sp)
        /*
         * ea-4 contains the address of the instruction being executed
         * when the exception occured. For interrupt exceptions, we will
         * will be re-issue the isntruction. Store it in 72(sp)
         */
        stw   r5,  68(sp)  /* estatus */
 1000068:	d9401115 	stw	r5,68(sp)
        addi  r15, ea, -4  /* instruction that caused exception */
 100006c:	ebffff04 	addi	r15,ea,-4
        stw   r15,  72(sp)
 1000070:	dbc01215 	stw	r15,72(sp)
#else
        /*
         * Test to see if the exception was a software exception or caused 
         * by an external interrupt, and vector accordingly.
         */
        rdctl r4, ipending
 1000074:	0009313a 	rdctl	r4,ipending
        andi  r2, r5, 1
 1000078:	2880004c 	andi	r2,r5,1
        beq   r2, zero, .Lnot_irq
 100007c:	10000326 	beq	r2,zero,100008c <alt_exception+0x6c>
        beq   r4, zero, .Lnot_irq
 1000080:	20000226 	beq	r4,zero,100008c <alt_exception+0x6c>
        /*
         * Now that all necessary registers have been preserved, call 
         * alt_irq_handler() to process the interrupts.
         */

        call alt_irq_handler
 1000084:	10000ec0 	call	10000ec <alt_irq_handler>

        .section .exceptions.irqreturn, "xa"

        br    .Lexception_exit
 1000088:	00000306 	br	1000098 <alt_exception+0x78>
         * upon completion, so we write ea (address of instruction *after*
         * the one where the exception occured) into 72(sp). The actual
         * instruction that caused the exception is written in r2, which these
         * handlers will utilize.
         */
        stw   ea,  72(sp)  /* Don't re-issue */
 100008c:	df401215 	stw	ea,72(sp)
        ldw   r2, -4(ea)   /* Instruction that caused exception */
 1000090:	e8bfff17 	ldw	r2,-4(ea)
#ifdef NIOS2_HAS_DEBUG_STUB
       /*
        *  Either tell the user now (if there is a debugger attached) or go into
        *  the debug monitor which will loop until a debugger is attached.
        */
        break
 1000094:	003da03a 	break	0
        /* 
         * Restore the saved registers, so that all general purpose registers 
         * have been restored to their state at the time the interrupt occured.
         */

        ldw   r5,  68(sp)
 1000098:	d9401117 	ldw	r5,68(sp)
        ldw   ea,  72(sp)  /* This becomes the PC once eret is executed */
 100009c:	df401217 	ldw	ea,72(sp)
        ldw   ra,   0(sp)
 10000a0:	dfc00017 	ldw	ra,0(sp)

        wrctl estatus, r5
 10000a4:	2801707a 	wrctl	estatus,r5

        ldw   r1,   8(sp)
 10000a8:	d8400217 	ldw	at,8(sp)
        ldw   r2,  12(sp)
 10000ac:	d8800317 	ldw	r2,12(sp)
        ldw   r3,  16(sp)
 10000b0:	d8c00417 	ldw	r3,16(sp)
        ldw   r4,  20(sp)
 10000b4:	d9000517 	ldw	r4,20(sp)
        ldw   r5,  24(sp)
 10000b8:	d9400617 	ldw	r5,24(sp)
        ldw   r6,  28(sp)
 10000bc:	d9800717 	ldw	r6,28(sp)
        ldw   r7,  32(sp)
 10000c0:	d9c00817 	ldw	r7,32(sp)
#ifdef ALT_STACK_CHECK
        ldw   et, %gprel(alt_exception_old_stack_limit)(gp)
#endif
#endif

        ldw   r8,  36(sp)
 10000c4:	da000917 	ldw	r8,36(sp)
        ldw   r9,  40(sp)
 10000c8:	da400a17 	ldw	r9,40(sp)
        ldw   r10, 44(sp)
 10000cc:	da800b17 	ldw	r10,44(sp)
        ldw   r11, 48(sp)
 10000d0:	dac00c17 	ldw	r11,48(sp)
        ldw   r12, 52(sp)
 10000d4:	db000d17 	ldw	r12,52(sp)
        ldw   r13, 56(sp)
 10000d8:	db400e17 	ldw	r13,56(sp)
        ldw   r14, 60(sp)
 10000dc:	db800f17 	ldw	r14,60(sp)
        ldw   r15, 64(sp)
 10000e0:	dbc01017 	ldw	r15,64(sp)
#endif

        ldw   sp,  76(sp)

#else
        addi  sp, sp, 76
 10000e4:	dec01304 	addi	sp,sp,76

        /*
         * Return to the interrupted instruction.
         */

        eret
 10000e8:	ef80083a 	eret

010000ec <alt_irq_handler>:
 * instruction is present if the macro ALT_CI_INTERRUPT_VECTOR defined.
 */

void alt_irq_handler (void) __attribute__ ((section (".exceptions")));
void alt_irq_handler (void)
{
 10000ec:	defff904 	addi	sp,sp,-28
 10000f0:	dfc00615 	stw	ra,24(sp)
 10000f4:	df000515 	stw	fp,20(sp)
 10000f8:	df000504 	addi	fp,sp,20
#ifndef NIOS2_EIC_PRESENT
static ALT_INLINE alt_u32 ALT_ALWAYS_INLINE alt_irq_pending (void)
{
  alt_u32 active;

  NIOS2_READ_IPENDING (active);
 10000fc:	0005313a 	rdctl	r2,ipending
 1000100:	e0bffc15 	stw	r2,-16(fp)

  return active;
 1000104:	e0bffc17 	ldw	r2,-16(fp)
   * Consider the case where the high priority interupt is asserted during
   * the interrupt entry sequence for a lower priority interrupt to see why
   * this is the case.
   */

  active = alt_irq_pending ();
 1000108:	e0bfff15 	stw	r2,-4(fp)

  do
  {
    i = 0;
 100010c:	e03ffd15 	stw	zero,-12(fp)
    mask = 1;
 1000110:	00800044 	movi	r2,1
 1000114:	e0bffe15 	stw	r2,-8(fp)
     * called to clear the interrupt condition.
     */

    do
    {
      if (active & mask)
 1000118:	e0ffff17 	ldw	r3,-4(fp)
 100011c:	e0bffe17 	ldw	r2,-8(fp)
 1000120:	1884703a 	and	r2,r3,r2
 1000124:	1005003a 	cmpeq	r2,r2,zero
 1000128:	1000161e 	bne	r2,zero,1000184 <alt_irq_handler+0x98>
      { 
#ifdef ALT_ENHANCED_INTERRUPT_API_PRESENT
        alt_irq[i].handler(alt_irq[i].context); 
 100012c:	e0bffd17 	ldw	r2,-12(fp)
 1000130:	00c04074 	movhi	r3,257
 1000134:	18d84504 	addi	r3,r3,24852
 1000138:	100490fa 	slli	r2,r2,3
 100013c:	10c5883a 	add	r2,r2,r3
 1000140:	11400017 	ldw	r5,0(r2)
 1000144:	e0bffd17 	ldw	r2,-12(fp)
 1000148:	00c04074 	movhi	r3,257
 100014c:	18d84504 	addi	r3,r3,24852
 1000150:	100490fa 	slli	r2,r2,3
 1000154:	10c5883a 	add	r2,r2,r3
 1000158:	10800104 	addi	r2,r2,4
 100015c:	11000017 	ldw	r4,0(r2)
 1000160:	283ee83a 	callr	r5
#ifndef NIOS2_EIC_PRESENT
static ALT_INLINE alt_u32 ALT_ALWAYS_INLINE alt_irq_pending (void)
{
  alt_u32 active;

  NIOS2_READ_IPENDING (active);
 1000164:	0005313a 	rdctl	r2,ipending
 1000168:	e0bffb15 	stw	r2,-20(fp)

  return active;
 100016c:	e0bffb17 	ldw	r2,-20(fp)
      mask <<= 1;
      i++;

    } while (1);

    active = alt_irq_pending ();
 1000170:	e0bfff15 	stw	r2,-4(fp)
    
  } while (active);
 1000174:	e0bfff17 	ldw	r2,-4(fp)
 1000178:	1004c03a 	cmpne	r2,r2,zero
 100017c:	103fe31e 	bne	r2,zero,100010c <alt_irq_handler+0x20>
 1000180:	00000706 	br	10001a0 <alt_irq_handler+0xb4>
#else
        alt_irq[i].handler(alt_irq[i].context, i); 
#endif
        break;
      }
      mask <<= 1;
 1000184:	e0bffe17 	ldw	r2,-8(fp)
 1000188:	1085883a 	add	r2,r2,r2
 100018c:	e0bffe15 	stw	r2,-8(fp)
      i++;
 1000190:	e0bffd17 	ldw	r2,-12(fp)
 1000194:	10800044 	addi	r2,r2,1
 1000198:	e0bffd15 	stw	r2,-12(fp)

    } while (1);
 100019c:	003fde06 	br	1000118 <alt_irq_handler+0x2c>
  /*
   * Notify the operating system that interrupt processing is complete.
   */ 

  ALT_OS_INT_EXIT();
}
 10001a0:	e037883a 	mov	sp,fp
 10001a4:	dfc00117 	ldw	ra,4(sp)
 10001a8:	df000017 	ldw	fp,0(sp)
 10001ac:	dec00204 	addi	sp,sp,8
 10001b0:	f800283a 	ret

Disassembly of section .text:

010001b4 <_start>:
#if (NIOS2_NUM_OF_SHADOW_REG_SETS == 0)    
    /*
     * Now that the caches are initialized, set up the stack pointer.
     * The value provided by the linker is assumed to be correctly aligned.
     */
    movhi sp, %hi(__alt_stack_pointer)
 10001b4:	06c06034 	movhi	sp,384
    ori sp, sp, %lo(__alt_stack_pointer)
 10001b8:	dec00014 	ori	sp,sp,0

    /* Set up the global pointer. */
    movhi gp, %hi(_gp)
 10001bc:	06804074 	movhi	gp,257
    ori gp, gp, %lo(_gp)
 10001c0:	d6b15514 	ori	gp,gp,50516
 */
#ifndef ALT_SIM_OPTIMIZE
    /* Log that the BSS is about to be cleared. */
    ALT_LOG_PUTS(alt_log_msg_bss)

    movhi r2, %hi(__bss_start)
 10001c4:	00804074 	movhi	r2,257
    ori r2, r2, %lo(__bss_start)
 10001c8:	10982e14 	ori	r2,r2,24760

    movhi r3, %hi(__bss_end)
 10001cc:	00c04074 	movhi	r3,257
    ori r3, r3, %lo(__bss_end)
 10001d0:	18d8e914 	ori	r3,r3,25508

    beq r2, r3, 1f
 10001d4:	10c00326 	beq	r2,r3,10001e4 <_start+0x30>

0:
    stw zero, (r2)
 10001d8:	10000015 	stw	zero,0(r2)
    addi r2, r2, 4
 10001dc:	10800104 	addi	r2,r2,4
    bltu r2, r3, 0b
 10001e0:	10fffd36 	bltu	r2,r3,10001d8 <_start+0x24>
     * section aren't defined until alt_load() has been called).
     */
    mov   et, zero
#endif

    call alt_load
 10001e4:	100db3c0 	call	100db3c <alt_load>

    /* Log that alt_main is about to be called. */
    ALT_LOG_PUTS(alt_log_msg_alt_main)

    /* Call the C entry point. It should never return. */
    call alt_main
 10001e8:	100dd7c0 	call	100dd7c <alt_main>

010001ec <alt_after_alt_main>:

    /* Wait in infinite loop in case alt_main does return. */
alt_after_alt_main:
    br alt_after_alt_main
 10001ec:	003fff06 	br	10001ec <alt_after_alt_main>

010001f0 <queue_new>:
#include <stdio.h>
#include <stdlib.h>
#include "queue_type.h"

Queue *queue_new(int capacity) {
 10001f0:	defffc04 	addi	sp,sp,-16
 10001f4:	dfc00315 	stw	ra,12(sp)
 10001f8:	df000215 	stw	fp,8(sp)
 10001fc:	df000204 	addi	fp,sp,8
 1000200:	e13fff15 	stw	r4,-4(fp)
    Queue *queue = malloc(sizeof(Queue));
 1000204:	01000504 	movi	r4,20
 1000208:	10051400 	call	1005140 <malloc>
 100020c:	e0bffe15 	stw	r2,-8(fp)
    queue->front = 0;
 1000210:	e0bffe17 	ldw	r2,-8(fp)
 1000214:	10000015 	stw	zero,0(r2)
    queue->back = 0;
 1000218:	e0bffe17 	ldw	r2,-8(fp)
 100021c:	10000115 	stw	zero,4(r2)
    queue->capacity = capacity;
 1000220:	e0fffe17 	ldw	r3,-8(fp)
 1000224:	e0bfff17 	ldw	r2,-4(fp)
 1000228:	18800215 	stw	r2,8(r3)
    queue->size = 0;
 100022c:	e0bffe17 	ldw	r2,-8(fp)
 1000230:	10000315 	stw	zero,12(r2)

    queue->array = malloc(capacity * sizeof(int));
 1000234:	e0bfff17 	ldw	r2,-4(fp)
 1000238:	1085883a 	add	r2,r2,r2
 100023c:	1085883a 	add	r2,r2,r2
 1000240:	1009883a 	mov	r4,r2
 1000244:	10051400 	call	1005140 <malloc>
 1000248:	1007883a 	mov	r3,r2
 100024c:	e0bffe17 	ldw	r2,-8(fp)
 1000250:	10c00415 	stw	r3,16(r2)

    return queue;
 1000254:	e0bffe17 	ldw	r2,-8(fp)
}
 1000258:	e037883a 	mov	sp,fp
 100025c:	dfc00117 	ldw	ra,4(sp)
 1000260:	df000017 	ldw	fp,0(sp)
 1000264:	dec00204 	addi	sp,sp,8
 1000268:	f800283a 	ret

0100026c <enqueue>:

int enqueue(Queue * queue, int value) {
 100026c:	defffb04 	addi	sp,sp,-20
 1000270:	dfc00415 	stw	ra,16(sp)
 1000274:	df000315 	stw	fp,12(sp)
 1000278:	df000304 	addi	fp,sp,12
 100027c:	e13ffd15 	stw	r4,-12(fp)
 1000280:	e17ffe15 	stw	r5,-8(fp)
    if (!is_full(queue)) {
 1000284:	e13ffd17 	ldw	r4,-12(fp)
 1000288:	10004000 	call	1000400 <is_full>
 100028c:	1004c03a 	cmpne	r2,r2,zero
 1000290:	1000221e 	bne	r2,zero,100031c <enqueue+0xb0>
        if (!is_empty(queue)) {
 1000294:	e13ffd17 	ldw	r4,-12(fp)
 1000298:	10004480 	call	1000448 <is_empty>
 100029c:	1004c03a 	cmpne	r2,r2,zero
 10002a0:	10000d1e 	bne	r2,zero,10002d8 <enqueue+0x6c>
            queue->back++;
 10002a4:	e0bffd17 	ldw	r2,-12(fp)
 10002a8:	10800117 	ldw	r2,4(r2)
 10002ac:	10c00044 	addi	r3,r2,1
 10002b0:	e0bffd17 	ldw	r2,-12(fp)
 10002b4:	10c00115 	stw	r3,4(r2)
            queue->back %= queue->capacity;
 10002b8:	e0bffd17 	ldw	r2,-12(fp)
 10002bc:	11000117 	ldw	r4,4(r2)
 10002c0:	e0bffd17 	ldw	r2,-12(fp)
 10002c4:	11400217 	ldw	r5,8(r2)
 10002c8:	10046fc0 	call	10046fc <__modsi3>
 10002cc:	1007883a 	mov	r3,r2
 10002d0:	e0bffd17 	ldw	r2,-12(fp)
 10002d4:	10c00115 	stw	r3,4(r2)
        }
        queue->array[queue->back] = value;
 10002d8:	e0bffd17 	ldw	r2,-12(fp)
 10002dc:	10c00417 	ldw	r3,16(r2)
 10002e0:	e0bffd17 	ldw	r2,-12(fp)
 10002e4:	10800117 	ldw	r2,4(r2)
 10002e8:	1085883a 	add	r2,r2,r2
 10002ec:	1085883a 	add	r2,r2,r2
 10002f0:	1887883a 	add	r3,r3,r2
 10002f4:	e0bffe17 	ldw	r2,-8(fp)
 10002f8:	18800015 	stw	r2,0(r3)
        queue->size++;
 10002fc:	e0bffd17 	ldw	r2,-12(fp)
 1000300:	10800317 	ldw	r2,12(r2)
 1000304:	10c00044 	addi	r3,r2,1
 1000308:	e0bffd17 	ldw	r2,-12(fp)
 100030c:	10c00315 	stw	r3,12(r2)
        return 1;
 1000310:	00800044 	movi	r2,1
 1000314:	e0bfff15 	stw	r2,-4(fp)
 1000318:	00000106 	br	1000320 <enqueue+0xb4>
    } else
        return 0;
 100031c:	e03fff15 	stw	zero,-4(fp)
 1000320:	e0bfff17 	ldw	r2,-4(fp)
}
 1000324:	e037883a 	mov	sp,fp
 1000328:	dfc00117 	ldw	ra,4(sp)
 100032c:	df000017 	ldw	fp,0(sp)
 1000330:	dec00204 	addi	sp,sp,8
 1000334:	f800283a 	ret

01000338 <dequeue>:

int dequeue(Queue * queue) {
 1000338:	defffb04 	addi	sp,sp,-20
 100033c:	dfc00415 	stw	ra,16(sp)
 1000340:	df000315 	stw	fp,12(sp)
 1000344:	df000304 	addi	fp,sp,12
 1000348:	e13ffe15 	stw	r4,-8(fp)
    if (!is_empty(queue)) {
 100034c:	e13ffe17 	ldw	r4,-8(fp)
 1000350:	10004480 	call	1000448 <is_empty>
 1000354:	1004c03a 	cmpne	r2,r2,zero
 1000358:	1000221e 	bne	r2,zero,10003e4 <dequeue+0xac>
        int dequeued = queue->array[queue->front];
 100035c:	e0bffe17 	ldw	r2,-8(fp)
 1000360:	10c00417 	ldw	r3,16(r2)
 1000364:	e0bffe17 	ldw	r2,-8(fp)
 1000368:	10800017 	ldw	r2,0(r2)
 100036c:	1085883a 	add	r2,r2,r2
 1000370:	1085883a 	add	r2,r2,r2
 1000374:	1885883a 	add	r2,r3,r2
 1000378:	10800017 	ldw	r2,0(r2)
 100037c:	e0bffd15 	stw	r2,-12(fp)
        queue->size--;
 1000380:	e0bffe17 	ldw	r2,-8(fp)
 1000384:	10800317 	ldw	r2,12(r2)
 1000388:	10ffffc4 	addi	r3,r2,-1
 100038c:	e0bffe17 	ldw	r2,-8(fp)
 1000390:	10c00315 	stw	r3,12(r2)
        if (!is_empty(queue)) {
 1000394:	e13ffe17 	ldw	r4,-8(fp)
 1000398:	10004480 	call	1000448 <is_empty>
 100039c:	1004c03a 	cmpne	r2,r2,zero
 10003a0:	10000d1e 	bne	r2,zero,10003d8 <dequeue+0xa0>
            queue->front++;
 10003a4:	e0bffe17 	ldw	r2,-8(fp)
 10003a8:	10800017 	ldw	r2,0(r2)
 10003ac:	10c00044 	addi	r3,r2,1
 10003b0:	e0bffe17 	ldw	r2,-8(fp)
 10003b4:	10c00015 	stw	r3,0(r2)
            queue->front %= queue->capacity;
 10003b8:	e0bffe17 	ldw	r2,-8(fp)
 10003bc:	11000017 	ldw	r4,0(r2)
 10003c0:	e0bffe17 	ldw	r2,-8(fp)
 10003c4:	11400217 	ldw	r5,8(r2)
 10003c8:	10046fc0 	call	10046fc <__modsi3>
 10003cc:	1007883a 	mov	r3,r2
 10003d0:	e0bffe17 	ldw	r2,-8(fp)
 10003d4:	10c00015 	stw	r3,0(r2)
        }
        return dequeued;
 10003d8:	e0bffd17 	ldw	r2,-12(fp)
 10003dc:	e0bfff15 	stw	r2,-4(fp)
 10003e0:	00000106 	br	10003e8 <dequeue+0xb0>
    }
    else
        return 0;
 10003e4:	e03fff15 	stw	zero,-4(fp)
 10003e8:	e0bfff17 	ldw	r2,-4(fp)
}
 10003ec:	e037883a 	mov	sp,fp
 10003f0:	dfc00117 	ldw	ra,4(sp)
 10003f4:	df000017 	ldw	fp,0(sp)
 10003f8:	dec00204 	addi	sp,sp,8
 10003fc:	f800283a 	ret

01000400 <is_full>:

int is_full(Queue * queue) {
 1000400:	defffd04 	addi	sp,sp,-12
 1000404:	df000215 	stw	fp,8(sp)
 1000408:	df000204 	addi	fp,sp,8
 100040c:	e13ffe15 	stw	r4,-8(fp)
    if (queue->size >= queue->capacity)
 1000410:	e0bffe17 	ldw	r2,-8(fp)
 1000414:	10c00317 	ldw	r3,12(r2)
 1000418:	e0bffe17 	ldw	r2,-8(fp)
 100041c:	10800217 	ldw	r2,8(r2)
 1000420:	18800316 	blt	r3,r2,1000430 <is_full+0x30>
        return 1;
 1000424:	00800044 	movi	r2,1
 1000428:	e0bfff15 	stw	r2,-4(fp)
 100042c:	00000106 	br	1000434 <is_full+0x34>
    else
        return 0;
 1000430:	e03fff15 	stw	zero,-4(fp)
 1000434:	e0bfff17 	ldw	r2,-4(fp)
}
 1000438:	e037883a 	mov	sp,fp
 100043c:	df000017 	ldw	fp,0(sp)
 1000440:	dec00104 	addi	sp,sp,4
 1000444:	f800283a 	ret

01000448 <is_empty>:

int is_empty(Queue * queue) {
 1000448:	defffd04 	addi	sp,sp,-12
 100044c:	df000215 	stw	fp,8(sp)
 1000450:	df000204 	addi	fp,sp,8
 1000454:	e13ffe15 	stw	r4,-8(fp)
    if (queue->size == 0)
 1000458:	e0bffe17 	ldw	r2,-8(fp)
 100045c:	10800317 	ldw	r2,12(r2)
 1000460:	1004c03a 	cmpne	r2,r2,zero
 1000464:	1000031e 	bne	r2,zero,1000474 <is_empty+0x2c>
        return 1;
 1000468:	00800044 	movi	r2,1
 100046c:	e0bfff15 	stw	r2,-4(fp)
 1000470:	00000106 	br	1000478 <is_empty+0x30>
    else
        return 0;
 1000474:	e03fff15 	stw	zero,-4(fp)
 1000478:	e0bfff17 	ldw	r2,-4(fp)
}
 100047c:	e037883a 	mov	sp,fp
 1000480:	df000017 	ldw	fp,0(sp)
 1000484:	dec00104 	addi	sp,sp,4
 1000488:	f800283a 	ret

0100048c <print_queue>:

void print_queue(Queue * queue) {
 100048c:	defffb04 	addi	sp,sp,-20
 1000490:	dfc00415 	stw	ra,16(sp)
 1000494:	df000315 	stw	fp,12(sp)
 1000498:	df000304 	addi	fp,sp,12
 100049c:	e13fff15 	stw	r4,-4(fp)
    printf("Front: %d\n", queue->front);
 10004a0:	e0bfff17 	ldw	r2,-4(fp)
 10004a4:	11400017 	ldw	r5,0(r2)
 10004a8:	01004074 	movhi	r4,257
 10004ac:	2108ee04 	addi	r4,r4,9144
 10004b0:	10058940 	call	1005894 <printf>
    printf("Back: %d\n", queue->back);
 10004b4:	e0bfff17 	ldw	r2,-4(fp)
 10004b8:	11400117 	ldw	r5,4(r2)
 10004bc:	01004074 	movhi	r4,257
 10004c0:	2108f104 	addi	r4,r4,9156
 10004c4:	10058940 	call	1005894 <printf>
    int i;
    printf("Current List: ");
 10004c8:	01004074 	movhi	r4,257
 10004cc:	2108f404 	addi	r4,r4,9168
 10004d0:	10058940 	call	1005894 <printf>
    if (queue->size == 0)
 10004d4:	e0bfff17 	ldw	r2,-4(fp)
 10004d8:	10800317 	ldw	r2,12(r2)
 10004dc:	1004c03a 	cmpne	r2,r2,zero
 10004e0:	1000041e 	bne	r2,zero,10004f4 <print_queue+0x68>
        printf("Empty");
 10004e4:	01004074 	movhi	r4,257
 10004e8:	2108f804 	addi	r4,r4,9184
 10004ec:	10058940 	call	1005894 <printf>
 10004f0:	00001d06 	br	1000568 <print_queue+0xdc>
    else
        for (i = 0; i < queue->size; i++) {
 10004f4:	e03ffe15 	stw	zero,-8(fp)
 10004f8:	00001706 	br	1000558 <print_queue+0xcc>
            int index = queue->front + i;
 10004fc:	e0bfff17 	ldw	r2,-4(fp)
 1000500:	10c00017 	ldw	r3,0(r2)
 1000504:	e0bffe17 	ldw	r2,-8(fp)
 1000508:	1885883a 	add	r2,r3,r2
 100050c:	e0bffd15 	stw	r2,-12(fp)
            index %= queue->capacity;
 1000510:	e0bfff17 	ldw	r2,-4(fp)
 1000514:	11400217 	ldw	r5,8(r2)
 1000518:	e13ffd17 	ldw	r4,-12(fp)
 100051c:	10046fc0 	call	10046fc <__modsi3>
 1000520:	e0bffd15 	stw	r2,-12(fp)
            printf("%d ", queue->array[index]);
 1000524:	e0bfff17 	ldw	r2,-4(fp)
 1000528:	10c00417 	ldw	r3,16(r2)
 100052c:	e0bffd17 	ldw	r2,-12(fp)
 1000530:	1085883a 	add	r2,r2,r2
 1000534:	1085883a 	add	r2,r2,r2
 1000538:	1885883a 	add	r2,r3,r2
 100053c:	11400017 	ldw	r5,0(r2)
 1000540:	01004074 	movhi	r4,257
 1000544:	2108fa04 	addi	r4,r4,9192
 1000548:	10058940 	call	1005894 <printf>
    int i;
    printf("Current List: ");
    if (queue->size == 0)
        printf("Empty");
    else
        for (i = 0; i < queue->size; i++) {
 100054c:	e0bffe17 	ldw	r2,-8(fp)
 1000550:	10800044 	addi	r2,r2,1
 1000554:	e0bffe15 	stw	r2,-8(fp)
 1000558:	e0bfff17 	ldw	r2,-4(fp)
 100055c:	10c00317 	ldw	r3,12(r2)
 1000560:	e0bffe17 	ldw	r2,-8(fp)
 1000564:	10ffe516 	blt	r2,r3,10004fc <print_queue+0x70>
            int index = queue->front + i;
            index %= queue->capacity;
            printf("%d ", queue->array[index]);
        }
    printf("\n\n");
 1000568:	01004074 	movhi	r4,257
 100056c:	2108fb04 	addi	r4,r4,9196
 1000570:	10059ac0 	call	10059ac <puts>
}
 1000574:	e037883a 	mov	sp,fp
 1000578:	dfc00117 	ldw	ra,4(sp)
 100057c:	df000017 	ldw	fp,0(sp)
 1000580:	dec00204 	addi	sp,sp,8
 1000584:	f800283a 	ret

01000588 <verbose_enqueue>:

void verbose_enqueue(Queue * queue, int value) {
 1000588:	defffc04 	addi	sp,sp,-16
 100058c:	dfc00315 	stw	ra,12(sp)
 1000590:	df000215 	stw	fp,8(sp)
 1000594:	df000204 	addi	fp,sp,8
 1000598:	e13ffe15 	stw	r4,-8(fp)
 100059c:	e17fff15 	stw	r5,-4(fp)
    if (enqueue(queue, value)) printf("Enqueued %d\n", queue->array[queue->back]);
 10005a0:	e13ffe17 	ldw	r4,-8(fp)
 10005a4:	e17fff17 	ldw	r5,-4(fp)
 10005a8:	100026c0 	call	100026c <enqueue>
 10005ac:	1005003a 	cmpeq	r2,r2,zero
 10005b0:	10000c1e 	bne	r2,zero,10005e4 <verbose_enqueue+0x5c>
 10005b4:	e0bffe17 	ldw	r2,-8(fp)
 10005b8:	10c00417 	ldw	r3,16(r2)
 10005bc:	e0bffe17 	ldw	r2,-8(fp)
 10005c0:	10800117 	ldw	r2,4(r2)
 10005c4:	1085883a 	add	r2,r2,r2
 10005c8:	1085883a 	add	r2,r2,r2
 10005cc:	1885883a 	add	r2,r3,r2
 10005d0:	11400017 	ldw	r5,0(r2)
 10005d4:	01004074 	movhi	r4,257
 10005d8:	2108fc04 	addi	r4,r4,9200
 10005dc:	10058940 	call	1005894 <printf>
 10005e0:	00000306 	br	10005f0 <verbose_enqueue+0x68>
    else printf("Failed to enqueue\n");
 10005e4:	01004074 	movhi	r4,257
 10005e8:	21090004 	addi	r4,r4,9216
 10005ec:	10059ac0 	call	10059ac <puts>

    print_queue(queue);
 10005f0:	e13ffe17 	ldw	r4,-8(fp)
 10005f4:	100048c0 	call	100048c <print_queue>
}
 10005f8:	e037883a 	mov	sp,fp
 10005fc:	dfc00117 	ldw	ra,4(sp)
 1000600:	df000017 	ldw	fp,0(sp)
 1000604:	dec00204 	addi	sp,sp,8
 1000608:	f800283a 	ret

0100060c <verbose_dequeue>:

void verbose_dequeue(Queue * queue) {
 100060c:	defffc04 	addi	sp,sp,-16
 1000610:	dfc00315 	stw	ra,12(sp)
 1000614:	df000215 	stw	fp,8(sp)
 1000618:	df000204 	addi	fp,sp,8
 100061c:	e13fff15 	stw	r4,-4(fp)
    int dequeued = dequeue(queue);
 1000620:	e13fff17 	ldw	r4,-4(fp)
 1000624:	10003380 	call	1000338 <dequeue>
 1000628:	e0bffe15 	stw	r2,-8(fp)
    if (dequeued) printf("Dequeued %d\n", dequeued);
 100062c:	e0bffe17 	ldw	r2,-8(fp)
 1000630:	1005003a 	cmpeq	r2,r2,zero
 1000634:	1000051e 	bne	r2,zero,100064c <verbose_dequeue+0x40>
 1000638:	01004074 	movhi	r4,257
 100063c:	21090504 	addi	r4,r4,9236
 1000640:	e17ffe17 	ldw	r5,-8(fp)
 1000644:	10058940 	call	1005894 <printf>
 1000648:	00000306 	br	1000658 <verbose_dequeue+0x4c>
    else printf("Failed to dequeue\n");
 100064c:	01004074 	movhi	r4,257
 1000650:	21090904 	addi	r4,r4,9252
 1000654:	10059ac0 	call	10059ac <puts>

    print_queue(queue);
 1000658:	e13fff17 	ldw	r4,-4(fp)
 100065c:	100048c0 	call	100048c <print_queue>
}
 1000660:	e037883a 	mov	sp,fp
 1000664:	dfc00117 	ldw	ra,4(sp)
 1000668:	df000017 	ldw	fp,0(sp)
 100066c:	dec00204 	addi	sp,sp,8
 1000670:	f800283a 	ret

01000674 <pulsing_box>:

int spinner(alt_up_pixel_buffer_dma_dev *pixel_buffer, Queue * x0_queue, Queue * x1_queue, Queue * y0_queue, Queue * y1_queue);

int infinite_spinner(alt_up_pixel_buffer_dma_dev *pixel_buffer, Queue * x0_queue, Queue * x1_queue, Queue * y0_queue, Queue * y1_queue);

int pulsing_box(alt_up_pixel_buffer_dma_dev *pixel_buffer) {
 1000674:	defff404 	addi	sp,sp,-48
 1000678:	dfc00b15 	stw	ra,44(sp)
 100067c:	df000a15 	stw	fp,40(sp)
 1000680:	df000a04 	addi	fp,sp,40
 1000684:	e13fff15 	stw	r4,-4(fp)
    int x0 = X_OFFSET, y0 = Y_OFFSET, x1 = WIDTH, y1 = HEIGHT, i, color = 0;
 1000688:	00800184 	movi	r2,6
 100068c:	e0bffe15 	stw	r2,-8(fp)
 1000690:	e03ffd15 	stw	zero,-12(fp)
 1000694:	00805004 	movi	r2,320
 1000698:	e0bffc15 	stw	r2,-16(fp)
 100069c:	00803c04 	movi	r2,240
 10006a0:	e0bffb15 	stw	r2,-20(fp)
 10006a4:	e03ff915 	stw	zero,-28(fp)

    for (i = 0; i < HEIGHT / 2; i++) {
 10006a8:	e03ffa15 	stw	zero,-24(fp)
 10006ac:	00001a06 	br	1000718 <pulsing_box+0xa4>
        color += COLOR_INC;
 10006b0:	e0bff917 	ldw	r2,-28(fp)
 10006b4:	10808884 	addi	r2,r2,546
 10006b8:	e0bff915 	stw	r2,-28(fp)
        alt_up_pixel_buffer_dma_draw_rectangle(pixel_buffer, x0 + i, y0 + i, x1 - i, y1 - i, color, 0);
 10006bc:	e0fffe17 	ldw	r3,-8(fp)
 10006c0:	e0bffa17 	ldw	r2,-24(fp)
 10006c4:	188b883a 	add	r5,r3,r2
 10006c8:	e0fffd17 	ldw	r3,-12(fp)
 10006cc:	e0bffa17 	ldw	r2,-24(fp)
 10006d0:	188d883a 	add	r6,r3,r2
 10006d4:	e0fffc17 	ldw	r3,-16(fp)
 10006d8:	e0bffa17 	ldw	r2,-24(fp)
 10006dc:	188fc83a 	sub	r7,r3,r2
 10006e0:	e0fffb17 	ldw	r3,-20(fp)
 10006e4:	e0bffa17 	ldw	r2,-24(fp)
 10006e8:	1885c83a 	sub	r2,r3,r2
 10006ec:	d8800015 	stw	r2,0(sp)
 10006f0:	e0bff917 	ldw	r2,-28(fp)
 10006f4:	d8800115 	stw	r2,4(sp)
 10006f8:	d8000215 	stw	zero,8(sp)
 10006fc:	e13fff17 	ldw	r4,-4(fp)
 1000700:	10109580 	call	1010958 <alt_up_pixel_buffer_dma_draw_rectangle>
        usleep(SLEEP);
 1000704:	010f4244 	movi	r4,15625
 1000708:	100e0e00 	call	100e0e0 <usleep>
int infinite_spinner(alt_up_pixel_buffer_dma_dev *pixel_buffer, Queue * x0_queue, Queue * x1_queue, Queue * y0_queue, Queue * y1_queue);

int pulsing_box(alt_up_pixel_buffer_dma_dev *pixel_buffer) {
    int x0 = X_OFFSET, y0 = Y_OFFSET, x1 = WIDTH, y1 = HEIGHT, i, color = 0;

    for (i = 0; i < HEIGHT / 2; i++) {
 100070c:	e0bffa17 	ldw	r2,-24(fp)
 1000710:	10800044 	addi	r2,r2,1
 1000714:	e0bffa15 	stw	r2,-24(fp)
 1000718:	e0bffa17 	ldw	r2,-24(fp)
 100071c:	10801e10 	cmplti	r2,r2,120
 1000720:	103fe31e 	bne	r2,zero,10006b0 <pulsing_box+0x3c>
        color += COLOR_INC;
        alt_up_pixel_buffer_dma_draw_rectangle(pixel_buffer, x0 + i, y0 + i, x1 - i, y1 - i, color, 0);
        usleep(SLEEP);
    }
    for (i = HEIGHT / 2; i >= 0; i--) {
 1000724:	00801e04 	movi	r2,120
 1000728:	e0bffa15 	stw	r2,-24(fp)
 100072c:	00001806 	br	1000790 <pulsing_box+0x11c>
        color = 0x0000;
 1000730:	e03ff915 	stw	zero,-28(fp)
        alt_up_pixel_buffer_dma_draw_rectangle(pixel_buffer, x0 + i, y0 + i, x1 - i, y1 - i, color, 0);
 1000734:	e0fffe17 	ldw	r3,-8(fp)
 1000738:	e0bffa17 	ldw	r2,-24(fp)
 100073c:	188b883a 	add	r5,r3,r2
 1000740:	e0fffd17 	ldw	r3,-12(fp)
 1000744:	e0bffa17 	ldw	r2,-24(fp)
 1000748:	188d883a 	add	r6,r3,r2
 100074c:	e0fffc17 	ldw	r3,-16(fp)
 1000750:	e0bffa17 	ldw	r2,-24(fp)
 1000754:	188fc83a 	sub	r7,r3,r2
 1000758:	e0fffb17 	ldw	r3,-20(fp)
 100075c:	e0bffa17 	ldw	r2,-24(fp)
 1000760:	1885c83a 	sub	r2,r3,r2
 1000764:	d8800015 	stw	r2,0(sp)
 1000768:	e0bff917 	ldw	r2,-28(fp)
 100076c:	d8800115 	stw	r2,4(sp)
 1000770:	d8000215 	stw	zero,8(sp)
 1000774:	e13fff17 	ldw	r4,-4(fp)
 1000778:	10109580 	call	1010958 <alt_up_pixel_buffer_dma_draw_rectangle>
        usleep(SLEEP);
 100077c:	010f4244 	movi	r4,15625
 1000780:	100e0e00 	call	100e0e0 <usleep>
    for (i = 0; i < HEIGHT / 2; i++) {
        color += COLOR_INC;
        alt_up_pixel_buffer_dma_draw_rectangle(pixel_buffer, x0 + i, y0 + i, x1 - i, y1 - i, color, 0);
        usleep(SLEEP);
    }
    for (i = HEIGHT / 2; i >= 0; i--) {
 1000784:	e0bffa17 	ldw	r2,-24(fp)
 1000788:	10bfffc4 	addi	r2,r2,-1
 100078c:	e0bffa15 	stw	r2,-24(fp)
 1000790:	e0bffa17 	ldw	r2,-24(fp)
 1000794:	1004403a 	cmpge	r2,r2,zero
 1000798:	103fe51e 	bne	r2,zero,1000730 <pulsing_box+0xbc>
        color = 0x0000;
        alt_up_pixel_buffer_dma_draw_rectangle(pixel_buffer, x0 + i, y0 + i, x1 - i, y1 - i, color, 0);
        usleep(SLEEP);
    }

    return 0;
 100079c:	0005883a 	mov	r2,zero
}
 10007a0:	e037883a 	mov	sp,fp
 10007a4:	dfc00117 	ldw	ra,4(sp)
 10007a8:	df000017 	ldw	fp,0(sp)
 10007ac:	dec00204 	addi	sp,sp,8
 10007b0:	f800283a 	ret

010007b4 <spinner>:

int spinner(alt_up_pixel_buffer_dma_dev *pixel_buffer, Queue * x0_queue, Queue * x1_queue, Queue * y0_queue, Queue * y1_queue) {
 10007b4:	deffe904 	addi	sp,sp,-92
 10007b8:	dfc01615 	stw	ra,88(sp)
 10007bc:	df001515 	stw	fp,84(sp)
 10007c0:	dc401415 	stw	r17,80(sp)
 10007c4:	dc001315 	stw	r16,76(sp)
 10007c8:	df001304 	addi	fp,sp,76
 10007cc:	e13ffc15 	stw	r4,-16(fp)
 10007d0:	e17ffd15 	stw	r5,-12(fp)
 10007d4:	e1bffe15 	stw	r6,-8(fp)
 10007d8:	e1ffff15 	stw	r7,-4(fp)
    // int x0 = -40, y0 = 120, x1 = 360, y1 = 120;
    float theta = 0.0, r = 100.0, inc = 0.01745, pi = 3.14159;
 10007dc:	e03ffb15 	stw	zero,-20(fp)
 10007e0:	0090b234 	movhi	r2,17096
 10007e4:	e0bffa15 	stw	r2,-24(fp)
 10007e8:	008f23f4 	movhi	r2,15503
 10007ec:	10bcd344 	addi	r2,r2,-3251
 10007f0:	e0bff915 	stw	r2,-28(fp)
 10007f4:	00901274 	movhi	r2,16457
 10007f8:	1083f404 	addi	r2,r2,4048
 10007fc:	e0bff815 	stw	r2,-32(fp)
    int x0, y0, x1, y1, i, color = 0xFFFF, delay = 19, delay_count = delay;
 1000800:	00bfffd4 	movui	r2,65535
 1000804:	e0bff215 	stw	r2,-56(fp)
 1000808:	008004c4 	movi	r2,19
 100080c:	e0bff115 	stw	r2,-60(fp)
 1000810:	e0bff117 	ldw	r2,-60(fp)
 1000814:	e0bff015 	stw	r2,-64(fp)

    while (theta < pi) {
 1000818:	0000ad06 	br	1000ad0 <spinner+0x31c>
        //if (theta > pi) theta = 0.0;

        //I don't know the cost of calculation
        x0 = (int)(r * cos(theta)) + WIDTH / 2;
 100081c:	e13ffa17 	ldw	r4,-24(fp)
 1000820:	10039640 	call	1003964 <__extendsfdf2>
 1000824:	1021883a 	mov	r16,r2
 1000828:	1823883a 	mov	r17,r3
 100082c:	e13ffb17 	ldw	r4,-20(fp)
 1000830:	10039640 	call	1003964 <__extendsfdf2>
 1000834:	100b883a 	mov	r5,r2
 1000838:	180d883a 	mov	r6,r3
 100083c:	2809883a 	mov	r4,r5
 1000840:	300b883a 	mov	r5,r6
 1000844:	1000fb80 	call	1000fb8 <cos>
 1000848:	100f883a 	mov	r7,r2
 100084c:	1811883a 	mov	r8,r3
 1000850:	8009883a 	mov	r4,r16
 1000854:	880b883a 	mov	r5,r17
 1000858:	380d883a 	mov	r6,r7
 100085c:	400f883a 	mov	r7,r8
 1000860:	1003ebc0 	call	1003ebc <__muldf3>
 1000864:	1009883a 	mov	r4,r2
 1000868:	180b883a 	mov	r5,r3
 100086c:	2005883a 	mov	r2,r4
 1000870:	2807883a 	mov	r3,r5
 1000874:	1009883a 	mov	r4,r2
 1000878:	180b883a 	mov	r5,r3
 100087c:	10045100 	call	1004510 <__fixdfsi>
 1000880:	10802804 	addi	r2,r2,160
 1000884:	e0bff715 	stw	r2,-36(fp)
        y0 = (int)(r * sin(theta)) + HEIGHT / 2;
 1000888:	e13ffa17 	ldw	r4,-24(fp)
 100088c:	10039640 	call	1003964 <__extendsfdf2>
 1000890:	1021883a 	mov	r16,r2
 1000894:	1823883a 	mov	r17,r3
 1000898:	e13ffb17 	ldw	r4,-20(fp)
 100089c:	10039640 	call	1003964 <__extendsfdf2>
 10008a0:	100b883a 	mov	r5,r2
 10008a4:	180d883a 	mov	r6,r3
 10008a8:	2809883a 	mov	r4,r5
 10008ac:	300b883a 	mov	r5,r6
 10008b0:	10011200 	call	1001120 <sin>
 10008b4:	100f883a 	mov	r7,r2
 10008b8:	1811883a 	mov	r8,r3
 10008bc:	8009883a 	mov	r4,r16
 10008c0:	880b883a 	mov	r5,r17
 10008c4:	380d883a 	mov	r6,r7
 10008c8:	400f883a 	mov	r7,r8
 10008cc:	1003ebc0 	call	1003ebc <__muldf3>
 10008d0:	1009883a 	mov	r4,r2
 10008d4:	180b883a 	mov	r5,r3
 10008d8:	2005883a 	mov	r2,r4
 10008dc:	2807883a 	mov	r3,r5
 10008e0:	1009883a 	mov	r4,r2
 10008e4:	180b883a 	mov	r5,r3
 10008e8:	10045100 	call	1004510 <__fixdfsi>
 10008ec:	10801e04 	addi	r2,r2,120
 10008f0:	e0bff615 	stw	r2,-40(fp)
        x1 = (int)(r * cos(theta + pi)) + WIDTH / 2;
 10008f4:	e13ffa17 	ldw	r4,-24(fp)
 10008f8:	10039640 	call	1003964 <__extendsfdf2>
 10008fc:	1021883a 	mov	r16,r2
 1000900:	1823883a 	mov	r17,r3
 1000904:	e13ffb17 	ldw	r4,-20(fp)
 1000908:	e17ff817 	ldw	r5,-32(fp)
 100090c:	10038100 	call	1003810 <__addsf3>
 1000910:	1009883a 	mov	r4,r2
 1000914:	10039640 	call	1003964 <__extendsfdf2>
 1000918:	100b883a 	mov	r5,r2
 100091c:	180d883a 	mov	r6,r3
 1000920:	2809883a 	mov	r4,r5
 1000924:	300b883a 	mov	r5,r6
 1000928:	1000fb80 	call	1000fb8 <cos>
 100092c:	100f883a 	mov	r7,r2
 1000930:	1811883a 	mov	r8,r3
 1000934:	8009883a 	mov	r4,r16
 1000938:	880b883a 	mov	r5,r17
 100093c:	380d883a 	mov	r6,r7
 1000940:	400f883a 	mov	r7,r8
 1000944:	1003ebc0 	call	1003ebc <__muldf3>
 1000948:	1009883a 	mov	r4,r2
 100094c:	180b883a 	mov	r5,r3
 1000950:	2005883a 	mov	r2,r4
 1000954:	2807883a 	mov	r3,r5
 1000958:	1009883a 	mov	r4,r2
 100095c:	180b883a 	mov	r5,r3
 1000960:	10045100 	call	1004510 <__fixdfsi>
 1000964:	10802804 	addi	r2,r2,160
 1000968:	e0bff515 	stw	r2,-44(fp)
        y1 = (int)(r * sin(theta + pi)) + HEIGHT / 2;
 100096c:	e13ffa17 	ldw	r4,-24(fp)
 1000970:	10039640 	call	1003964 <__extendsfdf2>
 1000974:	1021883a 	mov	r16,r2
 1000978:	1823883a 	mov	r17,r3
 100097c:	e13ffb17 	ldw	r4,-20(fp)
 1000980:	e17ff817 	ldw	r5,-32(fp)
 1000984:	10038100 	call	1003810 <__addsf3>
 1000988:	1009883a 	mov	r4,r2
 100098c:	10039640 	call	1003964 <__extendsfdf2>
 1000990:	100b883a 	mov	r5,r2
 1000994:	180d883a 	mov	r6,r3
 1000998:	2809883a 	mov	r4,r5
 100099c:	300b883a 	mov	r5,r6
 10009a0:	10011200 	call	1001120 <sin>
 10009a4:	100f883a 	mov	r7,r2
 10009a8:	1811883a 	mov	r8,r3
 10009ac:	8009883a 	mov	r4,r16
 10009b0:	880b883a 	mov	r5,r17
 10009b4:	380d883a 	mov	r6,r7
 10009b8:	400f883a 	mov	r7,r8
 10009bc:	1003ebc0 	call	1003ebc <__muldf3>
 10009c0:	1009883a 	mov	r4,r2
 10009c4:	180b883a 	mov	r5,r3
 10009c8:	2005883a 	mov	r2,r4
 10009cc:	2807883a 	mov	r3,r5
 10009d0:	1009883a 	mov	r4,r2
 10009d4:	180b883a 	mov	r5,r3
 10009d8:	10045100 	call	1004510 <__fixdfsi>
 10009dc:	10801e04 	addi	r2,r2,120
 10009e0:	e0bff415 	stw	r2,-48(fp)

        theta += inc;
 10009e4:	e13ffb17 	ldw	r4,-20(fp)
 10009e8:	e17ff917 	ldw	r5,-28(fp)
 10009ec:	10038100 	call	1003810 <__addsf3>
 10009f0:	e0bffb15 	stw	r2,-20(fp)

        enqueue(x0_queue, x0);
 10009f4:	e13ffd17 	ldw	r4,-12(fp)
 10009f8:	e17ff717 	ldw	r5,-36(fp)
 10009fc:	100026c0 	call	100026c <enqueue>
        enqueue(y0_queue, y0);
 1000a00:	e13fff17 	ldw	r4,-4(fp)
 1000a04:	e17ff617 	ldw	r5,-40(fp)
 1000a08:	100026c0 	call	100026c <enqueue>
        enqueue(x1_queue, x1);
 1000a0c:	e13ffe17 	ldw	r4,-8(fp)
 1000a10:	e17ff517 	ldw	r5,-44(fp)
 1000a14:	100026c0 	call	100026c <enqueue>
        enqueue(y1_queue, y1);
 1000a18:	e1000417 	ldw	r4,16(fp)
 1000a1c:	e17ff417 	ldw	r5,-48(fp)
 1000a20:	100026c0 	call	100026c <enqueue>

        color += COLOR_INC;
 1000a24:	e0bff217 	ldw	r2,-56(fp)
 1000a28:	10808884 	addi	r2,r2,546
 1000a2c:	e0bff215 	stw	r2,-56(fp)
        alt_up_pixel_buffer_dma_draw_line(pixel_buffer, x0, y0, x1, y1, color, 0);
 1000a30:	e0bff417 	ldw	r2,-48(fp)
 1000a34:	d8800015 	stw	r2,0(sp)
 1000a38:	e0bff217 	ldw	r2,-56(fp)
 1000a3c:	d8800115 	stw	r2,4(sp)
 1000a40:	d8000215 	stw	zero,8(sp)
 1000a44:	e13ffc17 	ldw	r4,-16(fp)
 1000a48:	e17ff717 	ldw	r5,-36(fp)
 1000a4c:	e1bff617 	ldw	r6,-40(fp)
 1000a50:	e1fff517 	ldw	r7,-44(fp)
 1000a54:	1010af40 	call	1010af4 <alt_up_pixel_buffer_dma_draw_line>

        if (delay_count == 0) {
 1000a58:	e0bff017 	ldw	r2,-64(fp)
 1000a5c:	1004c03a 	cmpne	r2,r2,zero
 1000a60:	1000161e 	bne	r2,zero,1000abc <spinner+0x308>
            x0 = dequeue(x0_queue);
 1000a64:	e13ffd17 	ldw	r4,-12(fp)
 1000a68:	10003380 	call	1000338 <dequeue>
 1000a6c:	e0bff715 	stw	r2,-36(fp)
            y0 = dequeue(y0_queue);
 1000a70:	e13fff17 	ldw	r4,-4(fp)
 1000a74:	10003380 	call	1000338 <dequeue>
 1000a78:	e0bff615 	stw	r2,-40(fp)
            x1 = dequeue(x1_queue);
 1000a7c:	e13ffe17 	ldw	r4,-8(fp)
 1000a80:	10003380 	call	1000338 <dequeue>
 1000a84:	e0bff515 	stw	r2,-44(fp)
            y1 = dequeue(y1_queue);
 1000a88:	e1000417 	ldw	r4,16(fp)
 1000a8c:	10003380 	call	1000338 <dequeue>
 1000a90:	e0bff415 	stw	r2,-48(fp)

            alt_up_pixel_buffer_dma_draw_line(pixel_buffer, x0, y0, x1, y1, 0, 0);
 1000a94:	e0bff417 	ldw	r2,-48(fp)
 1000a98:	d8800015 	stw	r2,0(sp)
 1000a9c:	d8000115 	stw	zero,4(sp)
 1000aa0:	d8000215 	stw	zero,8(sp)
 1000aa4:	e13ffc17 	ldw	r4,-16(fp)
 1000aa8:	e17ff717 	ldw	r5,-36(fp)
 1000aac:	e1bff617 	ldw	r6,-40(fp)
 1000ab0:	e1fff517 	ldw	r7,-44(fp)
 1000ab4:	1010af40 	call	1010af4 <alt_up_pixel_buffer_dma_draw_line>
 1000ab8:	00000306 	br	1000ac8 <spinner+0x314>
        }
        else
            delay_count--;
 1000abc:	e0bff017 	ldw	r2,-64(fp)
 1000ac0:	10bfffc4 	addi	r2,r2,-1
 1000ac4:	e0bff015 	stw	r2,-64(fp)

        usleep(SLEEP);
 1000ac8:	010f4244 	movi	r4,15625
 1000acc:	100e0e00 	call	100e0e0 <usleep>
int spinner(alt_up_pixel_buffer_dma_dev *pixel_buffer, Queue * x0_queue, Queue * x1_queue, Queue * y0_queue, Queue * y1_queue) {
    // int x0 = -40, y0 = 120, x1 = 360, y1 = 120;
    float theta = 0.0, r = 100.0, inc = 0.01745, pi = 3.14159;
    int x0, y0, x1, y1, i, color = 0xFFFF, delay = 19, delay_count = delay;

    while (theta < pi) {
 1000ad0:	e13ffb17 	ldw	r4,-20(fp)
 1000ad4:	e17ff817 	ldw	r5,-32(fp)
 1000ad8:	10038ec0 	call	10038ec <__ltsf2>
 1000adc:	1004803a 	cmplt	r2,r2,zero
 1000ae0:	103f4e1e 	bne	r2,zero,100081c <spinner+0x68>

        usleep(SLEEP);
    }

    // Clears the old lines
    while (!is_empty(x0_queue)) {
 1000ae4:	00001506 	br	1000b3c <spinner+0x388>
        x0 = dequeue(x0_queue);
 1000ae8:	e13ffd17 	ldw	r4,-12(fp)
 1000aec:	10003380 	call	1000338 <dequeue>
 1000af0:	e0bff715 	stw	r2,-36(fp)
        y0 = dequeue(y0_queue);
 1000af4:	e13fff17 	ldw	r4,-4(fp)
 1000af8:	10003380 	call	1000338 <dequeue>
 1000afc:	e0bff615 	stw	r2,-40(fp)
        x1 = dequeue(x1_queue);
 1000b00:	e13ffe17 	ldw	r4,-8(fp)
 1000b04:	10003380 	call	1000338 <dequeue>
 1000b08:	e0bff515 	stw	r2,-44(fp)
        y1 = dequeue(y1_queue);
 1000b0c:	e1000417 	ldw	r4,16(fp)
 1000b10:	10003380 	call	1000338 <dequeue>
 1000b14:	e0bff415 	stw	r2,-48(fp)

        alt_up_pixel_buffer_dma_draw_line(pixel_buffer, x0, y0, x1, y1, 0, 0);
 1000b18:	e0bff417 	ldw	r2,-48(fp)
 1000b1c:	d8800015 	stw	r2,0(sp)
 1000b20:	d8000115 	stw	zero,4(sp)
 1000b24:	d8000215 	stw	zero,8(sp)
 1000b28:	e13ffc17 	ldw	r4,-16(fp)
 1000b2c:	e17ff717 	ldw	r5,-36(fp)
 1000b30:	e1bff617 	ldw	r6,-40(fp)
 1000b34:	e1fff517 	ldw	r7,-44(fp)
 1000b38:	1010af40 	call	1010af4 <alt_up_pixel_buffer_dma_draw_line>

        usleep(SLEEP);
    }

    // Clears the old lines
    while (!is_empty(x0_queue)) {
 1000b3c:	e13ffd17 	ldw	r4,-12(fp)
 1000b40:	10004480 	call	1000448 <is_empty>
 1000b44:	1005003a 	cmpeq	r2,r2,zero
 1000b48:	103fe71e 	bne	r2,zero,1000ae8 <spinner+0x334>
        y1 = dequeue(y1_queue);

        alt_up_pixel_buffer_dma_draw_line(pixel_buffer, x0, y0, x1, y1, 0, 0);
    }

    return 0;
 1000b4c:	0005883a 	mov	r2,zero
}
 1000b50:	e037883a 	mov	sp,fp
 1000b54:	dfc00317 	ldw	ra,12(sp)
 1000b58:	df000217 	ldw	fp,8(sp)
 1000b5c:	dc400117 	ldw	r17,4(sp)
 1000b60:	dc000017 	ldw	r16,0(sp)
 1000b64:	dec00404 	addi	sp,sp,16
 1000b68:	f800283a 	ret

01000b6c <infinite_spinner>:

int infinite_spinner(alt_up_pixel_buffer_dma_dev *pixel_buffer, Queue * x0_queue, Queue * x1_queue, Queue * y0_queue, Queue * y1_queue) {
 1000b6c:	deffe904 	addi	sp,sp,-92
 1000b70:	dfc01615 	stw	ra,88(sp)
 1000b74:	df001515 	stw	fp,84(sp)
 1000b78:	dc401415 	stw	r17,80(sp)
 1000b7c:	dc001315 	stw	r16,76(sp)
 1000b80:	df001304 	addi	fp,sp,76
 1000b84:	e13ffc15 	stw	r4,-16(fp)
 1000b88:	e17ffd15 	stw	r5,-12(fp)
 1000b8c:	e1bffe15 	stw	r6,-8(fp)
 1000b90:	e1ffff15 	stw	r7,-4(fp)
    // int x0 = -40, y0 = 120, x1 = 360, y1 = 120;
    float theta = 0.0, r = 100.0, inc = 0.01745, pi = 3.14159;
 1000b94:	e03ffb15 	stw	zero,-20(fp)
 1000b98:	0090b234 	movhi	r2,17096
 1000b9c:	e0bffa15 	stw	r2,-24(fp)
 1000ba0:	008f23f4 	movhi	r2,15503
 1000ba4:	10bcd344 	addi	r2,r2,-3251
 1000ba8:	e0bff915 	stw	r2,-28(fp)
 1000bac:	00901274 	movhi	r2,16457
 1000bb0:	1083f404 	addi	r2,r2,4048
 1000bb4:	e0bff815 	stw	r2,-32(fp)
    int x0, y0, x1, y1, i, color = 0xFFFF, delay = 19, delay_count = delay;
 1000bb8:	00bfffd4 	movui	r2,65535
 1000bbc:	e0bff215 	stw	r2,-56(fp)
 1000bc0:	008004c4 	movi	r2,19
 1000bc4:	e0bff115 	stw	r2,-60(fp)
 1000bc8:	e0bff117 	ldw	r2,-60(fp)
 1000bcc:	e0bff015 	stw	r2,-64(fp)

    while (1) {
        if (theta > pi) theta = 0.0;
 1000bd0:	e13ffb17 	ldw	r4,-20(fp)
 1000bd4:	e17ff817 	ldw	r5,-32(fp)
 1000bd8:	10038740 	call	1003874 <__gtsf2>
 1000bdc:	10800048 	cmpgei	r2,r2,1
 1000be0:	1000011e 	bne	r2,zero,1000be8 <infinite_spinner+0x7c>
 1000be4:	00000106 	br	1000bec <infinite_spinner+0x80>
 1000be8:	e03ffb15 	stw	zero,-20(fp)

        //I don't know the cost of calculation
        x0 = (int)(r * cos(theta)) + WIDTH / 2;
 1000bec:	e13ffa17 	ldw	r4,-24(fp)
 1000bf0:	10039640 	call	1003964 <__extendsfdf2>
 1000bf4:	1021883a 	mov	r16,r2
 1000bf8:	1823883a 	mov	r17,r3
 1000bfc:	e13ffb17 	ldw	r4,-20(fp)
 1000c00:	10039640 	call	1003964 <__extendsfdf2>
 1000c04:	100b883a 	mov	r5,r2
 1000c08:	180d883a 	mov	r6,r3
 1000c0c:	2809883a 	mov	r4,r5
 1000c10:	300b883a 	mov	r5,r6
 1000c14:	1000fb80 	call	1000fb8 <cos>
 1000c18:	100f883a 	mov	r7,r2
 1000c1c:	1811883a 	mov	r8,r3
 1000c20:	8009883a 	mov	r4,r16
 1000c24:	880b883a 	mov	r5,r17
 1000c28:	380d883a 	mov	r6,r7
 1000c2c:	400f883a 	mov	r7,r8
 1000c30:	1003ebc0 	call	1003ebc <__muldf3>
 1000c34:	1009883a 	mov	r4,r2
 1000c38:	180b883a 	mov	r5,r3
 1000c3c:	2005883a 	mov	r2,r4
 1000c40:	2807883a 	mov	r3,r5
 1000c44:	1009883a 	mov	r4,r2
 1000c48:	180b883a 	mov	r5,r3
 1000c4c:	10045100 	call	1004510 <__fixdfsi>
 1000c50:	10802804 	addi	r2,r2,160
 1000c54:	e0bff715 	stw	r2,-36(fp)
        y0 = (int)(r * sin(theta)) + HEIGHT / 2;
 1000c58:	e13ffa17 	ldw	r4,-24(fp)
 1000c5c:	10039640 	call	1003964 <__extendsfdf2>
 1000c60:	1021883a 	mov	r16,r2
 1000c64:	1823883a 	mov	r17,r3
 1000c68:	e13ffb17 	ldw	r4,-20(fp)
 1000c6c:	10039640 	call	1003964 <__extendsfdf2>
 1000c70:	100b883a 	mov	r5,r2
 1000c74:	180d883a 	mov	r6,r3
 1000c78:	2809883a 	mov	r4,r5
 1000c7c:	300b883a 	mov	r5,r6
 1000c80:	10011200 	call	1001120 <sin>
 1000c84:	100f883a 	mov	r7,r2
 1000c88:	1811883a 	mov	r8,r3
 1000c8c:	8009883a 	mov	r4,r16
 1000c90:	880b883a 	mov	r5,r17
 1000c94:	380d883a 	mov	r6,r7
 1000c98:	400f883a 	mov	r7,r8
 1000c9c:	1003ebc0 	call	1003ebc <__muldf3>
 1000ca0:	1009883a 	mov	r4,r2
 1000ca4:	180b883a 	mov	r5,r3
 1000ca8:	2005883a 	mov	r2,r4
 1000cac:	2807883a 	mov	r3,r5
 1000cb0:	1009883a 	mov	r4,r2
 1000cb4:	180b883a 	mov	r5,r3
 1000cb8:	10045100 	call	1004510 <__fixdfsi>
 1000cbc:	10801e04 	addi	r2,r2,120
 1000cc0:	e0bff615 	stw	r2,-40(fp)
        x1 = (int)(r * cos(theta + pi)) + WIDTH / 2;
 1000cc4:	e13ffa17 	ldw	r4,-24(fp)
 1000cc8:	10039640 	call	1003964 <__extendsfdf2>
 1000ccc:	1021883a 	mov	r16,r2
 1000cd0:	1823883a 	mov	r17,r3
 1000cd4:	e13ffb17 	ldw	r4,-20(fp)
 1000cd8:	e17ff817 	ldw	r5,-32(fp)
 1000cdc:	10038100 	call	1003810 <__addsf3>
 1000ce0:	1009883a 	mov	r4,r2
 1000ce4:	10039640 	call	1003964 <__extendsfdf2>
 1000ce8:	100b883a 	mov	r5,r2
 1000cec:	180d883a 	mov	r6,r3
 1000cf0:	2809883a 	mov	r4,r5
 1000cf4:	300b883a 	mov	r5,r6
 1000cf8:	1000fb80 	call	1000fb8 <cos>
 1000cfc:	100f883a 	mov	r7,r2
 1000d00:	1811883a 	mov	r8,r3
 1000d04:	8009883a 	mov	r4,r16
 1000d08:	880b883a 	mov	r5,r17
 1000d0c:	380d883a 	mov	r6,r7
 1000d10:	400f883a 	mov	r7,r8
 1000d14:	1003ebc0 	call	1003ebc <__muldf3>
 1000d18:	1009883a 	mov	r4,r2
 1000d1c:	180b883a 	mov	r5,r3
 1000d20:	2005883a 	mov	r2,r4
 1000d24:	2807883a 	mov	r3,r5
 1000d28:	1009883a 	mov	r4,r2
 1000d2c:	180b883a 	mov	r5,r3
 1000d30:	10045100 	call	1004510 <__fixdfsi>
 1000d34:	10802804 	addi	r2,r2,160
 1000d38:	e0bff515 	stw	r2,-44(fp)
        y1 = (int)(r * sin(theta + pi)) + HEIGHT / 2;
 1000d3c:	e13ffa17 	ldw	r4,-24(fp)
 1000d40:	10039640 	call	1003964 <__extendsfdf2>
 1000d44:	1021883a 	mov	r16,r2
 1000d48:	1823883a 	mov	r17,r3
 1000d4c:	e13ffb17 	ldw	r4,-20(fp)
 1000d50:	e17ff817 	ldw	r5,-32(fp)
 1000d54:	10038100 	call	1003810 <__addsf3>
 1000d58:	1009883a 	mov	r4,r2
 1000d5c:	10039640 	call	1003964 <__extendsfdf2>
 1000d60:	100b883a 	mov	r5,r2
 1000d64:	180d883a 	mov	r6,r3
 1000d68:	2809883a 	mov	r4,r5
 1000d6c:	300b883a 	mov	r5,r6
 1000d70:	10011200 	call	1001120 <sin>
 1000d74:	100f883a 	mov	r7,r2
 1000d78:	1811883a 	mov	r8,r3
 1000d7c:	8009883a 	mov	r4,r16
 1000d80:	880b883a 	mov	r5,r17
 1000d84:	380d883a 	mov	r6,r7
 1000d88:	400f883a 	mov	r7,r8
 1000d8c:	1003ebc0 	call	1003ebc <__muldf3>
 1000d90:	1009883a 	mov	r4,r2
 1000d94:	180b883a 	mov	r5,r3
 1000d98:	2005883a 	mov	r2,r4
 1000d9c:	2807883a 	mov	r3,r5
 1000da0:	1009883a 	mov	r4,r2
 1000da4:	180b883a 	mov	r5,r3
 1000da8:	10045100 	call	1004510 <__fixdfsi>
 1000dac:	10801e04 	addi	r2,r2,120
 1000db0:	e0bff415 	stw	r2,-48(fp)

        theta += inc;
 1000db4:	e13ffb17 	ldw	r4,-20(fp)
 1000db8:	e17ff917 	ldw	r5,-28(fp)
 1000dbc:	10038100 	call	1003810 <__addsf3>
 1000dc0:	e0bffb15 	stw	r2,-20(fp)

        enqueue(x0_queue, x0);
 1000dc4:	e13ffd17 	ldw	r4,-12(fp)
 1000dc8:	e17ff717 	ldw	r5,-36(fp)
 1000dcc:	100026c0 	call	100026c <enqueue>
        enqueue(y0_queue, y0);
 1000dd0:	e13fff17 	ldw	r4,-4(fp)
 1000dd4:	e17ff617 	ldw	r5,-40(fp)
 1000dd8:	100026c0 	call	100026c <enqueue>
        enqueue(x1_queue, x1);
 1000ddc:	e13ffe17 	ldw	r4,-8(fp)
 1000de0:	e17ff517 	ldw	r5,-44(fp)
 1000de4:	100026c0 	call	100026c <enqueue>
        enqueue(y1_queue, y1);
 1000de8:	e1000417 	ldw	r4,16(fp)
 1000dec:	e17ff417 	ldw	r5,-48(fp)
 1000df0:	100026c0 	call	100026c <enqueue>

        color += COLOR_INC;
 1000df4:	e0bff217 	ldw	r2,-56(fp)
 1000df8:	10808884 	addi	r2,r2,546
 1000dfc:	e0bff215 	stw	r2,-56(fp)
        alt_up_pixel_buffer_dma_draw_line(pixel_buffer, x0, y0, x1, y1, color, 0);
 1000e00:	e0bff417 	ldw	r2,-48(fp)
 1000e04:	d8800015 	stw	r2,0(sp)
 1000e08:	e0bff217 	ldw	r2,-56(fp)
 1000e0c:	d8800115 	stw	r2,4(sp)
 1000e10:	d8000215 	stw	zero,8(sp)
 1000e14:	e13ffc17 	ldw	r4,-16(fp)
 1000e18:	e17ff717 	ldw	r5,-36(fp)
 1000e1c:	e1bff617 	ldw	r6,-40(fp)
 1000e20:	e1fff517 	ldw	r7,-44(fp)
 1000e24:	1010af40 	call	1010af4 <alt_up_pixel_buffer_dma_draw_line>

        if (delay_count == 0) {
 1000e28:	e0bff017 	ldw	r2,-64(fp)
 1000e2c:	1004c03a 	cmpne	r2,r2,zero
 1000e30:	1000161e 	bne	r2,zero,1000e8c <infinite_spinner+0x320>
            x0 = dequeue(x0_queue);
 1000e34:	e13ffd17 	ldw	r4,-12(fp)
 1000e38:	10003380 	call	1000338 <dequeue>
 1000e3c:	e0bff715 	stw	r2,-36(fp)
            y0 = dequeue(y0_queue);
 1000e40:	e13fff17 	ldw	r4,-4(fp)
 1000e44:	10003380 	call	1000338 <dequeue>
 1000e48:	e0bff615 	stw	r2,-40(fp)
            x1 = dequeue(x1_queue);
 1000e4c:	e13ffe17 	ldw	r4,-8(fp)
 1000e50:	10003380 	call	1000338 <dequeue>
 1000e54:	e0bff515 	stw	r2,-44(fp)
            y1 = dequeue(y1_queue);
 1000e58:	e1000417 	ldw	r4,16(fp)
 1000e5c:	10003380 	call	1000338 <dequeue>
 1000e60:	e0bff415 	stw	r2,-48(fp)

            alt_up_pixel_buffer_dma_draw_line(pixel_buffer, x0, y0, x1, y1, 0, 0);
 1000e64:	e0bff417 	ldw	r2,-48(fp)
 1000e68:	d8800015 	stw	r2,0(sp)
 1000e6c:	d8000115 	stw	zero,4(sp)
 1000e70:	d8000215 	stw	zero,8(sp)
 1000e74:	e13ffc17 	ldw	r4,-16(fp)
 1000e78:	e17ff717 	ldw	r5,-36(fp)
 1000e7c:	e1bff617 	ldw	r6,-40(fp)
 1000e80:	e1fff517 	ldw	r7,-44(fp)
 1000e84:	1010af40 	call	1010af4 <alt_up_pixel_buffer_dma_draw_line>
 1000e88:	00000306 	br	1000e98 <infinite_spinner+0x32c>
        }
        else
            delay_count--;
 1000e8c:	e0bff017 	ldw	r2,-64(fp)
 1000e90:	10bfffc4 	addi	r2,r2,-1
 1000e94:	e0bff015 	stw	r2,-64(fp)

        usleep((int)SLEEP/2);
 1000e98:	0107a104 	movi	r4,7812
 1000e9c:	100e0e00 	call	100e0e0 <usleep>
    }
 1000ea0:	003f4b06 	br	1000bd0 <infinite_spinner+0x64>

01000ea4 <main>:
    return 0;
}

int main(void) {
 1000ea4:	defff704 	addi	sp,sp,-36
 1000ea8:	dfc00815 	stw	ra,32(sp)
 1000eac:	df000715 	stw	fp,28(sp)
 1000eb0:	df000704 	addi	fp,sp,28
    printf("Hello Colin, from Nios II!\n");
 1000eb4:	01004074 	movhi	r4,257
 1000eb8:	21090e04 	addi	r4,r4,9272
 1000ebc:	10059ac0 	call	10059ac <puts>

    //Character Buffer
    alt_up_char_buffer_dev *char_buffer;
    char_buffer = alt_up_char_buffer_open_dev("/dev/char_drawer");
 1000ec0:	01004074 	movhi	r4,257
 1000ec4:	21091504 	addi	r4,r4,9300
 1000ec8:	100f6700 	call	100f670 <alt_up_char_buffer_open_dev>
 1000ecc:	e0bfff15 	stw	r2,-4(fp)
    alt_up_char_buffer_init(char_buffer);
 1000ed0:	e13fff17 	ldw	r4,-4(fp)
 1000ed4:	100f5ec0 	call	100f5ec <alt_up_char_buffer_init>

    //Write some text
    alt_up_char_buffer_string(char_buffer, "WELCOME TO FRUIT EXPLOSION", 27, 29);
 1000ed8:	e13fff17 	ldw	r4,-4(fp)
 1000edc:	01404074 	movhi	r5,257
 1000ee0:	29491a04 	addi	r5,r5,9320
 1000ee4:	018006c4 	movi	r6,27
 1000ee8:	01c00744 	movi	r7,29
 1000eec:	100f7800 	call	100f780 <alt_up_char_buffer_string>
    alt_up_char_buffer_string(char_buffer, "THE FRUIT EXPLODING GAME", 28, 31);
 1000ef0:	e13fff17 	ldw	r4,-4(fp)
 1000ef4:	01404074 	movhi	r5,257
 1000ef8:	29492104 	addi	r5,r5,9348
 1000efc:	01800704 	movi	r6,28
 1000f00:	01c007c4 	movi	r7,31
 1000f04:	100f7800 	call	100f780 <alt_up_char_buffer_string>
    alt_up_char_buffer_string(char_buffer, "GAME COMING SOON", 32, 36);
 1000f08:	e13fff17 	ldw	r4,-4(fp)
 1000f0c:	01404074 	movhi	r5,257
 1000f10:	29492804 	addi	r5,r5,9376
 1000f14:	01800804 	movi	r6,32
 1000f18:	01c00904 	movi	r7,36
 1000f1c:	100f7800 	call	100f780 <alt_up_char_buffer_string>

    //Pixel Buffer
    alt_up_pixel_buffer_dma_dev *pixel_buffer;

    //Opens the pixel buffer device specified by /dev/pixel_buffer_dma
    pixel_buffer = alt_up_pixel_buffer_dma_open_dev("/dev/pixel_buffer_dma");
 1000f20:	01004074 	movhi	r4,257
 1000f24:	21092d04 	addi	r4,r4,9396
 1000f28:	100f8f00 	call	100f8f0 <alt_up_pixel_buffer_dma_open_dev>
 1000f2c:	e0bffe15 	stw	r2,-8(fp)

    //Set the background buffer address - Although we don't use the background, they only provide a function to change the background buffer address, so we must set that, and then swap it to the foreground
    //Changes the back buffer's start address
    alt_up_pixel_buffer_dma_change_back_buffer_address(pixel_buffer, PIXEL_BUFFER_BASE);
 1000f30:	e13ffe17 	ldw	r4,-8(fp)
 1000f34:	01400234 	movhi	r5,8
 1000f38:	100fadc0 	call	100fadc <alt_up_pixel_buffer_dma_change_back_buffer_address>

    //Swap background and foreground buffers
    alt_up_pixel_buffer_dma_swap_buffers(pixel_buffer);
 1000f3c:	e13ffe17 	ldw	r4,-8(fp)
 1000f40:	100fb340 	call	100fb34 <alt_up_pixel_buffer_dma_swap_buffers>

    //Wait for the swap to complete
    while(alt_up_pixel_buffer_dma_check_swap_buffers_status(pixel_buffer));
 1000f44:	e13ffe17 	ldw	r4,-8(fp)
 1000f48:	100fb8c0 	call	100fb8c <alt_up_pixel_buffer_dma_check_swap_buffers_status>
 1000f4c:	1004c03a 	cmpne	r2,r2,zero
 1000f50:	103ffc1e 	bne	r2,zero,1000f44 <main+0xa0>

    //Clear the screen
    alt_up_pixel_buffer_dma_clear_screen(pixel_buffer, 0);
 1000f54:	e13ffe17 	ldw	r4,-8(fp)
 1000f58:	000b883a 	mov	r5,zero
 1000f5c:	100fbc00 	call	100fbc0 <alt_up_pixel_buffer_dma_clear_screen>

    //Do your thing
    Queue * x0_queue = queue_new(20);
 1000f60:	01000504 	movi	r4,20
 1000f64:	10001f00 	call	10001f0 <queue_new>
 1000f68:	e0bffd15 	stw	r2,-12(fp)
    Queue * y0_queue = queue_new(20);
 1000f6c:	01000504 	movi	r4,20
 1000f70:	10001f00 	call	10001f0 <queue_new>
 1000f74:	e0bffc15 	stw	r2,-16(fp)
    Queue * x1_queue = queue_new(20);
 1000f78:	01000504 	movi	r4,20
 1000f7c:	10001f00 	call	10001f0 <queue_new>
 1000f80:	e0bffb15 	stw	r2,-20(fp)
    Queue * y1_queue = queue_new(20);
 1000f84:	01000504 	movi	r4,20
 1000f88:	10001f00 	call	10001f0 <queue_new>
 1000f8c:	e0bffa15 	stw	r2,-24(fp)
    while(1) {
        spinner(pixel_buffer, x0_queue, x1_queue, y0_queue, y1_queue);
 1000f90:	e0bffa17 	ldw	r2,-24(fp)
 1000f94:	d8800015 	stw	r2,0(sp)
 1000f98:	e13ffe17 	ldw	r4,-8(fp)
 1000f9c:	e17ffd17 	ldw	r5,-12(fp)
 1000fa0:	e1bffb17 	ldw	r6,-20(fp)
 1000fa4:	e1fffc17 	ldw	r7,-16(fp)
 1000fa8:	10007b40 	call	10007b4 <spinner>
        pulsing_box(pixel_buffer);
 1000fac:	e13ffe17 	ldw	r4,-8(fp)
 1000fb0:	10006740 	call	1000674 <pulsing_box>
    }
 1000fb4:	003ff606 	br	1000f90 <main+0xec>

01000fb8 <cos>:
 1000fb8:	00a00034 	movhi	r2,32768
 1000fbc:	10bfffc4 	addi	r2,r2,-1
 1000fc0:	defffa04 	addi	sp,sp,-24
 1000fc4:	114c703a 	and	r6,r2,r5
 1000fc8:	008ffa74 	movhi	r2,16361
 1000fcc:	10887ec4 	addi	r2,r2,8699
 1000fd0:	dfc00515 	stw	ra,20(sp)
 1000fd4:	2011883a 	mov	r8,r4
 1000fd8:	1180210e 	bge	r2,r6,1001060 <cos+0xa8>
 1000fdc:	009ffc34 	movhi	r2,32752
 1000fe0:	10bfffc4 	addi	r2,r2,-1
 1000fe4:	11800a0e 	bge	r2,r6,1001010 <cos+0x58>
 1000fe8:	280f883a 	mov	r7,r5
 1000fec:	400d883a 	mov	r6,r8
 1000ff0:	1003dc80 	call	1003dc8 <__subdf3>
 1000ff4:	100d883a 	mov	r6,r2
 1000ff8:	180f883a 	mov	r7,r3
 1000ffc:	3005883a 	mov	r2,r6
 1001000:	3807883a 	mov	r3,r7
 1001004:	dfc00517 	ldw	ra,20(sp)
 1001008:	dec00604 	addi	sp,sp,24
 100100c:	f800283a 	ret
 1001010:	d9800104 	addi	r6,sp,4
 1001014:	100128c0 	call	100128c <__ieee754_rem_pio2>
 1001018:	10c000cc 	andi	r3,r2,3
 100101c:	01000044 	movi	r4,1
 1001020:	19001926 	beq	r3,r4,1001088 <cos+0xd0>
 1001024:	00800084 	movi	r2,2
 1001028:	18803126 	beq	r3,r2,10010f0 <cos+0x138>
 100102c:	1800231e 	bne	r3,zero,10010bc <cos+0x104>
 1001030:	d8800117 	ldw	r2,4(sp)
 1001034:	da000317 	ldw	r8,12(sp)
 1001038:	d8c00217 	ldw	r3,8(sp)
 100103c:	da400417 	ldw	r9,16(sp)
 1001040:	400d883a 	mov	r6,r8
 1001044:	180b883a 	mov	r5,r3
 1001048:	480f883a 	mov	r7,r9
 100104c:	1009883a 	mov	r4,r2
 1001050:	1001ab40 	call	1001ab4 <__kernel_cos>
 1001054:	100d883a 	mov	r6,r2
 1001058:	180f883a 	mov	r7,r3
 100105c:	003fe706 	br	1000ffc <cos+0x44>
 1001060:	000d883a 	mov	r6,zero
 1001064:	000f883a 	mov	r7,zero
 1001068:	1001ab40 	call	1001ab4 <__kernel_cos>
 100106c:	100d883a 	mov	r6,r2
 1001070:	180f883a 	mov	r7,r3
 1001074:	3005883a 	mov	r2,r6
 1001078:	3807883a 	mov	r3,r7
 100107c:	dfc00517 	ldw	ra,20(sp)
 1001080:	dec00604 	addi	sp,sp,24
 1001084:	f800283a 	ret
 1001088:	d8800117 	ldw	r2,4(sp)
 100108c:	da000317 	ldw	r8,12(sp)
 1001090:	d8c00217 	ldw	r3,8(sp)
 1001094:	da400417 	ldw	r9,16(sp)
 1001098:	d9000015 	stw	r4,0(sp)
 100109c:	400d883a 	mov	r6,r8
 10010a0:	480f883a 	mov	r7,r9
 10010a4:	180b883a 	mov	r5,r3
 10010a8:	1009883a 	mov	r4,r2
 10010ac:	1002e640 	call	1002e64 <__kernel_sin>
 10010b0:	100d883a 	mov	r6,r2
 10010b4:	19e0003c 	xorhi	r7,r3,32768
 10010b8:	003fd006 	br	1000ffc <cos+0x44>
 10010bc:	d8800117 	ldw	r2,4(sp)
 10010c0:	da000317 	ldw	r8,12(sp)
 10010c4:	d8c00217 	ldw	r3,8(sp)
 10010c8:	da400417 	ldw	r9,16(sp)
 10010cc:	d9000015 	stw	r4,0(sp)
 10010d0:	400d883a 	mov	r6,r8
 10010d4:	480f883a 	mov	r7,r9
 10010d8:	180b883a 	mov	r5,r3
 10010dc:	1009883a 	mov	r4,r2
 10010e0:	1002e640 	call	1002e64 <__kernel_sin>
 10010e4:	100d883a 	mov	r6,r2
 10010e8:	180f883a 	mov	r7,r3
 10010ec:	003fc306 	br	1000ffc <cos+0x44>
 10010f0:	d8800117 	ldw	r2,4(sp)
 10010f4:	da000317 	ldw	r8,12(sp)
 10010f8:	d8c00217 	ldw	r3,8(sp)
 10010fc:	da400417 	ldw	r9,16(sp)
 1001100:	400d883a 	mov	r6,r8
 1001104:	180b883a 	mov	r5,r3
 1001108:	480f883a 	mov	r7,r9
 100110c:	1009883a 	mov	r4,r2
 1001110:	1001ab40 	call	1001ab4 <__kernel_cos>
 1001114:	100d883a 	mov	r6,r2
 1001118:	19e0003c 	xorhi	r7,r3,32768
 100111c:	003fb706 	br	1000ffc <cos+0x44>

01001120 <sin>:
 1001120:	00a00034 	movhi	r2,32768
 1001124:	10bfffc4 	addi	r2,r2,-1
 1001128:	defffa04 	addi	sp,sp,-24
 100112c:	114c703a 	and	r6,r2,r5
 1001130:	008ffa74 	movhi	r2,16361
 1001134:	10887ec4 	addi	r2,r2,8699
 1001138:	dfc00515 	stw	ra,20(sp)
 100113c:	2011883a 	mov	r8,r4
 1001140:	1180220e 	bge	r2,r6,10011cc <sin+0xac>
 1001144:	009ffc34 	movhi	r2,32752
 1001148:	10bfffc4 	addi	r2,r2,-1
 100114c:	11800a0e 	bge	r2,r6,1001178 <sin+0x58>
 1001150:	280f883a 	mov	r7,r5
 1001154:	400d883a 	mov	r6,r8
 1001158:	1003dc80 	call	1003dc8 <__subdf3>
 100115c:	100d883a 	mov	r6,r2
 1001160:	180f883a 	mov	r7,r3
 1001164:	3005883a 	mov	r2,r6
 1001168:	3807883a 	mov	r3,r7
 100116c:	dfc00517 	ldw	ra,20(sp)
 1001170:	dec00604 	addi	sp,sp,24
 1001174:	f800283a 	ret
 1001178:	d9800104 	addi	r6,sp,4
 100117c:	100128c0 	call	100128c <__ieee754_rem_pio2>
 1001180:	10c000cc 	andi	r3,r2,3
 1001184:	01000044 	movi	r4,1
 1001188:	19001b26 	beq	r3,r4,10011f8 <sin+0xd8>
 100118c:	00800084 	movi	r2,2
 1001190:	18803126 	beq	r3,r2,1001258 <sin+0x138>
 1001194:	1800241e 	bne	r3,zero,1001228 <sin+0x108>
 1001198:	d8800117 	ldw	r2,4(sp)
 100119c:	da000317 	ldw	r8,12(sp)
 10011a0:	d8c00217 	ldw	r3,8(sp)
 10011a4:	da400417 	ldw	r9,16(sp)
 10011a8:	d9000015 	stw	r4,0(sp)
 10011ac:	400d883a 	mov	r6,r8
 10011b0:	480f883a 	mov	r7,r9
 10011b4:	180b883a 	mov	r5,r3
 10011b8:	1009883a 	mov	r4,r2
 10011bc:	1002e640 	call	1002e64 <__kernel_sin>
 10011c0:	100d883a 	mov	r6,r2
 10011c4:	180f883a 	mov	r7,r3
 10011c8:	003fe606 	br	1001164 <sin+0x44>
 10011cc:	000d883a 	mov	r6,zero
 10011d0:	000f883a 	mov	r7,zero
 10011d4:	d8000015 	stw	zero,0(sp)
 10011d8:	1002e640 	call	1002e64 <__kernel_sin>
 10011dc:	100d883a 	mov	r6,r2
 10011e0:	180f883a 	mov	r7,r3
 10011e4:	3005883a 	mov	r2,r6
 10011e8:	3807883a 	mov	r3,r7
 10011ec:	dfc00517 	ldw	ra,20(sp)
 10011f0:	dec00604 	addi	sp,sp,24
 10011f4:	f800283a 	ret
 10011f8:	d8800117 	ldw	r2,4(sp)
 10011fc:	da000317 	ldw	r8,12(sp)
 1001200:	d8c00217 	ldw	r3,8(sp)
 1001204:	da400417 	ldw	r9,16(sp)
 1001208:	400d883a 	mov	r6,r8
 100120c:	180b883a 	mov	r5,r3
 1001210:	480f883a 	mov	r7,r9
 1001214:	1009883a 	mov	r4,r2
 1001218:	1001ab40 	call	1001ab4 <__kernel_cos>
 100121c:	100d883a 	mov	r6,r2
 1001220:	180f883a 	mov	r7,r3
 1001224:	003fcf06 	br	1001164 <sin+0x44>
 1001228:	d8800117 	ldw	r2,4(sp)
 100122c:	da000317 	ldw	r8,12(sp)
 1001230:	d8c00217 	ldw	r3,8(sp)
 1001234:	da400417 	ldw	r9,16(sp)
 1001238:	400d883a 	mov	r6,r8
 100123c:	180b883a 	mov	r5,r3
 1001240:	480f883a 	mov	r7,r9
 1001244:	1009883a 	mov	r4,r2
 1001248:	1001ab40 	call	1001ab4 <__kernel_cos>
 100124c:	100d883a 	mov	r6,r2
 1001250:	19e0003c 	xorhi	r7,r3,32768
 1001254:	003fc306 	br	1001164 <sin+0x44>
 1001258:	d8800117 	ldw	r2,4(sp)
 100125c:	da000317 	ldw	r8,12(sp)
 1001260:	d8c00217 	ldw	r3,8(sp)
 1001264:	da400417 	ldw	r9,16(sp)
 1001268:	d9000015 	stw	r4,0(sp)
 100126c:	400d883a 	mov	r6,r8
 1001270:	480f883a 	mov	r7,r9
 1001274:	180b883a 	mov	r5,r3
 1001278:	1009883a 	mov	r4,r2
 100127c:	1002e640 	call	1002e64 <__kernel_sin>
 1001280:	100d883a 	mov	r6,r2
 1001284:	19e0003c 	xorhi	r7,r3,32768
 1001288:	003fb606 	br	1001164 <sin+0x44>

0100128c <__ieee754_rem_pio2>:
 100128c:	deffe304 	addi	sp,sp,-116
 1001290:	00a00034 	movhi	r2,32768
 1001294:	10bfffc4 	addi	r2,r2,-1
 1001298:	dd801915 	stw	r22,100(sp)
 100129c:	28ac703a 	and	r22,r5,r2
 10012a0:	008ffa74 	movhi	r2,16361
 10012a4:	10887ec4 	addi	r2,r2,8699
 10012a8:	df001b15 	stw	fp,108(sp)
 10012ac:	dfc01c15 	stw	ra,112(sp)
 10012b0:	ddc01a15 	stw	r23,104(sp)
 10012b4:	dd401815 	stw	r21,96(sp)
 10012b8:	dd001715 	stw	r20,92(sp)
 10012bc:	dcc01615 	stw	r19,88(sp)
 10012c0:	dc801515 	stw	r18,84(sp)
 10012c4:	dc401415 	stw	r17,80(sp)
 10012c8:	dc001315 	stw	r16,76(sp)
 10012cc:	2013883a 	mov	r9,r4
 10012d0:	d9400a15 	stw	r5,40(sp)
 10012d4:	3039883a 	mov	fp,r6
 10012d8:	15801216 	blt	r2,r22,1001324 <__ieee754_rem_pio2+0x98>
 10012dc:	e1400115 	stw	r5,4(fp)
 10012e0:	30000315 	stw	zero,12(r6)
 10012e4:	e1000015 	stw	r4,0(fp)
 10012e8:	d8000b15 	stw	zero,44(sp)
 10012ec:	30000215 	stw	zero,8(r6)
 10012f0:	d8800b17 	ldw	r2,44(sp)
 10012f4:	dfc01c17 	ldw	ra,112(sp)
 10012f8:	df001b17 	ldw	fp,108(sp)
 10012fc:	ddc01a17 	ldw	r23,104(sp)
 1001300:	dd801917 	ldw	r22,100(sp)
 1001304:	dd401817 	ldw	r21,96(sp)
 1001308:	dd001717 	ldw	r20,92(sp)
 100130c:	dcc01617 	ldw	r19,88(sp)
 1001310:	dc801517 	ldw	r18,84(sp)
 1001314:	dc401417 	ldw	r17,80(sp)
 1001318:	dc001317 	ldw	r16,76(sp)
 100131c:	dec01d04 	addi	sp,sp,116
 1001320:	f800283a 	ret
 1001324:	009000f4 	movhi	r2,16387
 1001328:	10b65ec4 	addi	r2,r2,-9861
 100132c:	15800f0e 	bge	r2,r22,100136c <__ieee754_rem_pio2+0xe0>
 1001330:	00904e74 	movhi	r2,16697
 1001334:	10887ec4 	addi	r2,r2,8699
 1001338:	1580330e 	bge	r2,r22,1001408 <__ieee754_rem_pio2+0x17c>
 100133c:	009ffc34 	movhi	r2,32752
 1001340:	10bfffc4 	addi	r2,r2,-1
 1001344:	1580fe0e 	bge	r2,r22,1001740 <__ieee754_rem_pio2+0x4b4>
 1001348:	280f883a 	mov	r7,r5
 100134c:	480d883a 	mov	r6,r9
 1001350:	1003dc80 	call	1003dc8 <__subdf3>
 1001354:	e0c00115 	stw	r3,4(fp)
 1001358:	d8000b15 	stw	zero,44(sp)
 100135c:	e0800015 	stw	r2,0(fp)
 1001360:	e0800215 	stw	r2,8(fp)
 1001364:	e0c00315 	stw	r3,12(fp)
 1001368:	003fe106 	br	10012f0 <__ieee754_rem_pio2+0x64>
 100136c:	d9000a17 	ldw	r4,40(sp)
 1001370:	0100ce0e 	bge	zero,r4,10016ac <__ieee754_rem_pio2+0x420>
 1001374:	04151034 	movhi	r16,21568
 1001378:	044ffe74 	movhi	r17,16377
 100137c:	8c487ec4 	addi	r17,r17,8699
 1001380:	4809883a 	mov	r4,r9
 1001384:	800d883a 	mov	r6,r16
 1001388:	880f883a 	mov	r7,r17
 100138c:	1003dc80 	call	1003dc8 <__subdf3>
 1001390:	1025883a 	mov	r18,r2
 1001394:	1827883a 	mov	r19,r3
 1001398:	b4413c26 	beq	r22,r17,100188c <__ieee754_rem_pio2+0x600>
 100139c:	040698b4 	movhi	r16,6754
 10013a0:	8418cc44 	addi	r16,r16,25393
 10013a4:	044f7474 	movhi	r17,15825
 10013a8:	8c6d1844 	addi	r17,r17,-19359
 10013ac:	1009883a 	mov	r4,r2
 10013b0:	180b883a 	mov	r5,r3
 10013b4:	800d883a 	mov	r6,r16
 10013b8:	880f883a 	mov	r7,r17
 10013bc:	1003dc80 	call	1003dc8 <__subdf3>
 10013c0:	100d883a 	mov	r6,r2
 10013c4:	9009883a 	mov	r4,r18
 10013c8:	980b883a 	mov	r5,r19
 10013cc:	180f883a 	mov	r7,r3
 10013d0:	e0800015 	stw	r2,0(fp)
 10013d4:	e0c00115 	stw	r3,4(fp)
 10013d8:	1003dc80 	call	1003dc8 <__subdf3>
 10013dc:	1009883a 	mov	r4,r2
 10013e0:	800d883a 	mov	r6,r16
 10013e4:	880f883a 	mov	r7,r17
 10013e8:	180b883a 	mov	r5,r3
 10013ec:	1003dc80 	call	1003dc8 <__subdf3>
 10013f0:	1009883a 	mov	r4,r2
 10013f4:	00800044 	movi	r2,1
 10013f8:	d8800b15 	stw	r2,44(sp)
 10013fc:	e0c00315 	stw	r3,12(fp)
 1001400:	e1000215 	stw	r4,8(fp)
 1001404:	003fba06 	br	10012f0 <__ieee754_rem_pio2+0x64>
 1001408:	100317c0 	call	100317c <fabs>
 100140c:	021b72b4 	movhi	r8,28106
 1001410:	423220c4 	addi	r8,r8,-14205
 1001414:	024ff934 	movhi	r9,16356
 1001418:	4a57cc04 	addi	r9,r9,24368
 100141c:	480f883a 	mov	r7,r9
 1001420:	400d883a 	mov	r6,r8
 1001424:	1009883a 	mov	r4,r2
 1001428:	180b883a 	mov	r5,r3
 100142c:	1025883a 	mov	r18,r2
 1001430:	1827883a 	mov	r19,r3
 1001434:	1003ebc0 	call	1003ebc <__muldf3>
 1001438:	0011883a 	mov	r8,zero
 100143c:	024ff834 	movhi	r9,16352
 1001440:	480f883a 	mov	r7,r9
 1001444:	400d883a 	mov	r6,r8
 1001448:	180b883a 	mov	r5,r3
 100144c:	1009883a 	mov	r4,r2
 1001450:	1003e480 	call	1003e48 <__adddf3>
 1001454:	180b883a 	mov	r5,r3
 1001458:	1009883a 	mov	r4,r2
 100145c:	10045100 	call	1004510 <__fixdfsi>
 1001460:	1009883a 	mov	r4,r2
 1001464:	d8800b15 	stw	r2,44(sp)
 1001468:	10044180 	call	1004418 <__floatsidf>
 100146c:	1823883a 	mov	r17,r3
 1001470:	1009883a 	mov	r4,r2
 1001474:	d8800c15 	stw	r2,48(sp)
 1001478:	00effe74 	movhi	r3,49145
 100147c:	18c87ec4 	addi	r3,r3,8699
 1001480:	00951034 	movhi	r2,21568
 1001484:	880b883a 	mov	r5,r17
 1001488:	180f883a 	mov	r7,r3
 100148c:	100d883a 	mov	r6,r2
 1001490:	dc400d15 	stw	r17,52(sp)
 1001494:	1003ebc0 	call	1003ebc <__muldf3>
 1001498:	180f883a 	mov	r7,r3
 100149c:	980b883a 	mov	r5,r19
 10014a0:	9009883a 	mov	r4,r18
 10014a4:	100d883a 	mov	r6,r2
 10014a8:	1003e480 	call	1003e48 <__adddf3>
 10014ac:	d9000c17 	ldw	r4,48(sp)
 10014b0:	020698b4 	movhi	r8,6754
 10014b4:	4218cc44 	addi	r8,r8,25393
 10014b8:	024f7474 	movhi	r9,15825
 10014bc:	4a6d1844 	addi	r9,r9,-19359
 10014c0:	880b883a 	mov	r5,r17
 10014c4:	480f883a 	mov	r7,r9
 10014c8:	400d883a 	mov	r6,r8
 10014cc:	1025883a 	mov	r18,r2
 10014d0:	1827883a 	mov	r19,r3
 10014d4:	1003ebc0 	call	1003ebc <__muldf3>
 10014d8:	d9000b17 	ldw	r4,44(sp)
 10014dc:	100f883a 	mov	r7,r2
 10014e0:	1811883a 	mov	r8,r3
 10014e4:	008007c4 	movi	r2,31
 10014e8:	dc800e15 	stw	r18,56(sp)
 10014ec:	3821883a 	mov	r16,r7
 10014f0:	dcc00f15 	stw	r19,60(sp)
 10014f4:	4023883a 	mov	r17,r8
 10014f8:	11010a0e 	bge	r2,r4,1001924 <__ieee754_rem_pio2+0x698>
 10014fc:	d9000e17 	ldw	r4,56(sp)
 1001500:	d9400f17 	ldw	r5,60(sp)
 1001504:	800d883a 	mov	r6,r16
 1001508:	880f883a 	mov	r7,r17
 100150c:	1003dc80 	call	1003dc8 <__subdf3>
 1001510:	1810d53a 	srli	r8,r3,20
 1001514:	b02dd53a 	srai	r22,r22,20
 1001518:	1009883a 	mov	r4,r2
 100151c:	4201ffcc 	andi	r8,r8,2047
 1001520:	180b883a 	mov	r5,r3
 1001524:	b211c83a 	sub	r8,r22,r8
 1001528:	00800404 	movi	r2,16
 100152c:	dd801015 	stw	r22,64(sp)
 1001530:	e1000015 	stw	r4,0(fp)
 1001534:	e1400115 	stw	r5,4(fp)
 1001538:	1200430e 	bge	r2,r8,1001648 <__ieee754_rem_pio2+0x3bc>
 100153c:	d9000c17 	ldw	r4,48(sp)
 1001540:	d9400d17 	ldw	r5,52(sp)
 1001544:	00869834 	movhi	r2,6752
 1001548:	00cf7474 	movhi	r3,15825
 100154c:	18ed1844 	addi	r3,r3,-19359
 1001550:	180f883a 	mov	r7,r3
 1001554:	100d883a 	mov	r6,r2
 1001558:	1003ebc0 	call	1003ebc <__muldf3>
 100155c:	d9000e17 	ldw	r4,56(sp)
 1001560:	d9400f17 	ldw	r5,60(sp)
 1001564:	100d883a 	mov	r6,r2
 1001568:	180f883a 	mov	r7,r3
 100156c:	1025883a 	mov	r18,r2
 1001570:	1827883a 	mov	r19,r3
 1001574:	1003dc80 	call	1003dc8 <__subdf3>
 1001578:	d9000c17 	ldw	r4,48(sp)
 100157c:	d9400d17 	ldw	r5,52(sp)
 1001580:	058b80f4 	movhi	r22,11779
 1001584:	b59c1cc4 	addi	r22,r22,28787
 1001588:	05cee8f4 	movhi	r23,15267
 100158c:	bdc66284 	addi	r23,r23,6538
 1001590:	b00d883a 	mov	r6,r22
 1001594:	b80f883a 	mov	r7,r23
 1001598:	d8801115 	stw	r2,68(sp)
 100159c:	d8c01215 	stw	r3,72(sp)
 10015a0:	d8800815 	stw	r2,32(sp)
 10015a4:	1003ebc0 	call	1003ebc <__muldf3>
 10015a8:	d9001217 	ldw	r4,72(sp)
 10015ac:	d9400f17 	ldw	r5,60(sp)
 10015b0:	d9800817 	ldw	r6,32(sp)
 10015b4:	d9000915 	stw	r4,36(sp)
 10015b8:	d9c01217 	ldw	r7,72(sp)
 10015bc:	d9000e17 	ldw	r4,56(sp)
 10015c0:	1021883a 	mov	r16,r2
 10015c4:	1823883a 	mov	r17,r3
 10015c8:	1003dc80 	call	1003dc8 <__subdf3>
 10015cc:	180b883a 	mov	r5,r3
 10015d0:	900d883a 	mov	r6,r18
 10015d4:	980f883a 	mov	r7,r19
 10015d8:	1009883a 	mov	r4,r2
 10015dc:	1003dc80 	call	1003dc8 <__subdf3>
 10015e0:	180f883a 	mov	r7,r3
 10015e4:	880b883a 	mov	r5,r17
 10015e8:	8009883a 	mov	r4,r16
 10015ec:	100d883a 	mov	r6,r2
 10015f0:	1003dc80 	call	1003dc8 <__subdf3>
 10015f4:	d9000817 	ldw	r4,32(sp)
 10015f8:	d9401217 	ldw	r5,72(sp)
 10015fc:	180f883a 	mov	r7,r3
 1001600:	100d883a 	mov	r6,r2
 1001604:	1021883a 	mov	r16,r2
 1001608:	1823883a 	mov	r17,r3
 100160c:	1003dc80 	call	1003dc8 <__subdf3>
 1001610:	1810d53a 	srli	r8,r3,20
 1001614:	1009883a 	mov	r4,r2
 1001618:	d8801017 	ldw	r2,64(sp)
 100161c:	4201ffcc 	andi	r8,r8,2047
 1001620:	180b883a 	mov	r5,r3
 1001624:	1211c83a 	sub	r8,r2,r8
 1001628:	00800c44 	movi	r2,49
 100162c:	e1000015 	stw	r4,0(fp)
 1001630:	e1400115 	stw	r5,4(fp)
 1001634:	1200f016 	blt	r2,r8,10019f8 <__ieee754_rem_pio2+0x76c>
 1001638:	d8c00817 	ldw	r3,32(sp)
 100163c:	d9001217 	ldw	r4,72(sp)
 1001640:	d8c00e15 	stw	r3,56(sp)
 1001644:	d9000f15 	stw	r4,60(sp)
 1001648:	e1800017 	ldw	r6,0(fp)
 100164c:	e1c00117 	ldw	r7,4(fp)
 1001650:	d9400f17 	ldw	r5,60(sp)
 1001654:	d9000e17 	ldw	r4,56(sp)
 1001658:	1003dc80 	call	1003dc8 <__subdf3>
 100165c:	180b883a 	mov	r5,r3
 1001660:	800d883a 	mov	r6,r16
 1001664:	880f883a 	mov	r7,r17
 1001668:	1009883a 	mov	r4,r2
 100166c:	1003dc80 	call	1003dc8 <__subdf3>
 1001670:	d9400a17 	ldw	r5,40(sp)
 1001674:	e0800215 	stw	r2,8(fp)
 1001678:	e1800204 	addi	r6,fp,8
 100167c:	30c00115 	stw	r3,4(r6)
 1001680:	283f1b0e 	bge	r5,zero,10012f0 <__ieee754_rem_pio2+0x64>
 1001684:	e0c00117 	ldw	r3,4(fp)
 1001688:	d8800b17 	ldw	r2,44(sp)
 100168c:	18e0003c 	xorhi	r3,r3,32768
 1001690:	0085c83a 	sub	r2,zero,r2
 1001694:	e0c00115 	stw	r3,4(fp)
 1001698:	d8800b15 	stw	r2,44(sp)
 100169c:	30800117 	ldw	r2,4(r6)
 10016a0:	10a0003c 	xorhi	r2,r2,32768
 10016a4:	30800115 	stw	r2,4(r6)
 10016a8:	003f1106 	br	10012f0 <__ieee754_rem_pio2+0x64>
 10016ac:	04151034 	movhi	r16,21568
 10016b0:	044ffe74 	movhi	r17,16377
 10016b4:	8c487ec4 	addi	r17,r17,8699
 10016b8:	4809883a 	mov	r4,r9
 10016bc:	800d883a 	mov	r6,r16
 10016c0:	880f883a 	mov	r7,r17
 10016c4:	1003e480 	call	1003e48 <__adddf3>
 10016c8:	1025883a 	mov	r18,r2
 10016cc:	1827883a 	mov	r19,r3
 10016d0:	b440a326 	beq	r22,r17,1001960 <__ieee754_rem_pio2+0x6d4>
 10016d4:	040698b4 	movhi	r16,6754
 10016d8:	8418cc44 	addi	r16,r16,25393
 10016dc:	044f7474 	movhi	r17,15825
 10016e0:	8c6d1844 	addi	r17,r17,-19359
 10016e4:	1009883a 	mov	r4,r2
 10016e8:	180b883a 	mov	r5,r3
 10016ec:	800d883a 	mov	r6,r16
 10016f0:	880f883a 	mov	r7,r17
 10016f4:	1003e480 	call	1003e48 <__adddf3>
 10016f8:	100d883a 	mov	r6,r2
 10016fc:	9009883a 	mov	r4,r18
 1001700:	980b883a 	mov	r5,r19
 1001704:	180f883a 	mov	r7,r3
 1001708:	e0800015 	stw	r2,0(fp)
 100170c:	e0c00115 	stw	r3,4(fp)
 1001710:	1003dc80 	call	1003dc8 <__subdf3>
 1001714:	1009883a 	mov	r4,r2
 1001718:	800d883a 	mov	r6,r16
 100171c:	880f883a 	mov	r7,r17
 1001720:	180b883a 	mov	r5,r3
 1001724:	1003e480 	call	1003e48 <__adddf3>
 1001728:	1009883a 	mov	r4,r2
 100172c:	00bfffc4 	movi	r2,-1
 1001730:	d8800b15 	stw	r2,44(sp)
 1001734:	e0c00315 	stw	r3,12(fp)
 1001738:	e1000215 	stw	r4,8(fp)
 100173c:	003eec06 	br	10012f0 <__ieee754_rem_pio2+0x64>
 1001740:	b005d53a 	srai	r2,r22,20
 1001744:	4821883a 	mov	r16,r9
 1001748:	05505c34 	movhi	r21,16752
 100174c:	15fefa84 	addi	r23,r2,-1046
 1001750:	b826953a 	slli	r19,r23,20
 1001754:	0029883a 	mov	r20,zero
 1001758:	048000c4 	movi	r18,3
 100175c:	b4e7c83a 	sub	r19,r22,r19
 1001760:	980b883a 	mov	r5,r19
 1001764:	10045100 	call	1004510 <__fixdfsi>
 1001768:	1009883a 	mov	r4,r2
 100176c:	10044180 	call	1004418 <__floatsidf>
 1001770:	980b883a 	mov	r5,r19
 1001774:	8009883a 	mov	r4,r16
 1001778:	180f883a 	mov	r7,r3
 100177c:	100d883a 	mov	r6,r2
 1001780:	d8800215 	stw	r2,8(sp)
 1001784:	d8c00315 	stw	r3,12(sp)
 1001788:	1003dc80 	call	1003dc8 <__subdf3>
 100178c:	180b883a 	mov	r5,r3
 1001790:	a00d883a 	mov	r6,r20
 1001794:	a80f883a 	mov	r7,r21
 1001798:	1009883a 	mov	r4,r2
 100179c:	1003ebc0 	call	1003ebc <__muldf3>
 10017a0:	180b883a 	mov	r5,r3
 10017a4:	1009883a 	mov	r4,r2
 10017a8:	1823883a 	mov	r17,r3
 10017ac:	1021883a 	mov	r16,r2
 10017b0:	10045100 	call	1004510 <__fixdfsi>
 10017b4:	1009883a 	mov	r4,r2
 10017b8:	10044180 	call	1004418 <__floatsidf>
 10017bc:	880b883a 	mov	r5,r17
 10017c0:	8009883a 	mov	r4,r16
 10017c4:	180f883a 	mov	r7,r3
 10017c8:	100d883a 	mov	r6,r2
 10017cc:	d8800415 	stw	r2,16(sp)
 10017d0:	d8c00515 	stw	r3,20(sp)
 10017d4:	1003dc80 	call	1003dc8 <__subdf3>
 10017d8:	180b883a 	mov	r5,r3
 10017dc:	000d883a 	mov	r6,zero
 10017e0:	a80f883a 	mov	r7,r21
 10017e4:	1009883a 	mov	r4,r2
 10017e8:	1003ebc0 	call	1003ebc <__muldf3>
 10017ec:	d8c00715 	stw	r3,28(sp)
 10017f0:	d8800615 	stw	r2,24(sp)
 10017f4:	00000106 	br	10017fc <__ieee754_rem_pio2+0x570>
 10017f8:	8025883a 	mov	r18,r16
 10017fc:	943fffc4 	addi	r16,r18,-1
 1001800:	800890fa 	slli	r4,r16,3
 1001804:	d9400204 	addi	r5,sp,8
 1001808:	000d883a 	mov	r6,zero
 100180c:	2149883a 	add	r4,r4,r5
 1001810:	20c00117 	ldw	r3,4(r4)
 1001814:	20800017 	ldw	r2,0(r4)
 1001818:	000f883a 	mov	r7,zero
 100181c:	180b883a 	mov	r5,r3
 1001820:	1009883a 	mov	r4,r2
 1001824:	10042800 	call	1004280 <__eqdf2>
 1001828:	103ff326 	beq	r2,zero,10017f8 <__ieee754_rem_pio2+0x56c>
 100182c:	00800084 	movi	r2,2
 1001830:	00c04074 	movhi	r3,257
 1001834:	18c95304 	addi	r3,r3,9548
 1001838:	b80d883a 	mov	r6,r23
 100183c:	900f883a 	mov	r7,r18
 1001840:	d9000204 	addi	r4,sp,8
 1001844:	e00b883a 	mov	r5,fp
 1001848:	d8800015 	stw	r2,0(sp)
 100184c:	d8c00115 	stw	r3,4(sp)
 1001850:	1001fe00 	call	1001fe0 <__kernel_rem_pio2>
 1001854:	d8800b15 	stw	r2,44(sp)
 1001858:	d8800a17 	ldw	r2,40(sp)
 100185c:	103ea40e 	bge	r2,zero,10012f0 <__ieee754_rem_pio2+0x64>
 1001860:	e0800117 	ldw	r2,4(fp)
 1001864:	d8c00b17 	ldw	r3,44(sp)
 1001868:	e1000204 	addi	r4,fp,8
 100186c:	10a0003c 	xorhi	r2,r2,32768
 1001870:	00c7c83a 	sub	r3,zero,r3
 1001874:	e0800115 	stw	r2,4(fp)
 1001878:	d8c00b15 	stw	r3,44(sp)
 100187c:	20c00117 	ldw	r3,4(r4)
 1001880:	18e0003c 	xorhi	r3,r3,32768
 1001884:	20c00115 	stw	r3,4(r4)
 1001888:	003e9906 	br	10012f0 <__ieee754_rem_pio2+0x64>
 100188c:	00869834 	movhi	r2,6752
 1001890:	00cf7474 	movhi	r3,15825
 1001894:	18ed1844 	addi	r3,r3,-19359
 1001898:	9009883a 	mov	r4,r18
 100189c:	980b883a 	mov	r5,r19
 10018a0:	180f883a 	mov	r7,r3
 10018a4:	100d883a 	mov	r6,r2
 10018a8:	1003dc80 	call	1003dc8 <__subdf3>
 10018ac:	048b80f4 	movhi	r18,11779
 10018b0:	949c1cc4 	addi	r18,r18,28787
 10018b4:	04cee8f4 	movhi	r19,15267
 10018b8:	9cc66284 	addi	r19,r19,6538
 10018bc:	1009883a 	mov	r4,r2
 10018c0:	180b883a 	mov	r5,r3
 10018c4:	900d883a 	mov	r6,r18
 10018c8:	980f883a 	mov	r7,r19
 10018cc:	1021883a 	mov	r16,r2
 10018d0:	1823883a 	mov	r17,r3
 10018d4:	1003dc80 	call	1003dc8 <__subdf3>
 10018d8:	100d883a 	mov	r6,r2
 10018dc:	8009883a 	mov	r4,r16
 10018e0:	880b883a 	mov	r5,r17
 10018e4:	180f883a 	mov	r7,r3
 10018e8:	e0800015 	stw	r2,0(fp)
 10018ec:	e0c00115 	stw	r3,4(fp)
 10018f0:	1003dc80 	call	1003dc8 <__subdf3>
 10018f4:	180b883a 	mov	r5,r3
 10018f8:	1009883a 	mov	r4,r2
 10018fc:	900d883a 	mov	r6,r18
 1001900:	980f883a 	mov	r7,r19
 1001904:	1003dc80 	call	1003dc8 <__subdf3>
 1001908:	180b883a 	mov	r5,r3
 100190c:	1009883a 	mov	r4,r2
 1001910:	00c00044 	movi	r3,1
 1001914:	d8c00b15 	stw	r3,44(sp)
 1001918:	e1400315 	stw	r5,12(fp)
 100191c:	e1000215 	stw	r4,8(fp)
 1001920:	003e7306 	br	10012f0 <__ieee754_rem_pio2+0x64>
 1001924:	2105883a 	add	r2,r4,r4
 1001928:	1085883a 	add	r2,r2,r2
 100192c:	00c04074 	movhi	r3,257
 1001930:	18c93304 	addi	r3,r3,9420
 1001934:	10c5883a 	add	r2,r2,r3
 1001938:	113fff17 	ldw	r4,-4(r2)
 100193c:	b13eef26 	beq	r22,r4,10014fc <__ieee754_rem_pio2+0x270>
 1001940:	980b883a 	mov	r5,r19
 1001944:	400f883a 	mov	r7,r8
 1001948:	9009883a 	mov	r4,r18
 100194c:	800d883a 	mov	r6,r16
 1001950:	1003dc80 	call	1003dc8 <__subdf3>
 1001954:	e0c00115 	stw	r3,4(fp)
 1001958:	e0800015 	stw	r2,0(fp)
 100195c:	003f3a06 	br	1001648 <__ieee754_rem_pio2+0x3bc>
 1001960:	00869834 	movhi	r2,6752
 1001964:	00cf7474 	movhi	r3,15825
 1001968:	18ed1844 	addi	r3,r3,-19359
 100196c:	9009883a 	mov	r4,r18
 1001970:	980b883a 	mov	r5,r19
 1001974:	180f883a 	mov	r7,r3
 1001978:	100d883a 	mov	r6,r2
 100197c:	1003e480 	call	1003e48 <__adddf3>
 1001980:	048b80f4 	movhi	r18,11779
 1001984:	949c1cc4 	addi	r18,r18,28787
 1001988:	04cee8f4 	movhi	r19,15267
 100198c:	9cc66284 	addi	r19,r19,6538
 1001990:	1009883a 	mov	r4,r2
 1001994:	180b883a 	mov	r5,r3
 1001998:	900d883a 	mov	r6,r18
 100199c:	980f883a 	mov	r7,r19
 10019a0:	1021883a 	mov	r16,r2
 10019a4:	1823883a 	mov	r17,r3
 10019a8:	1003e480 	call	1003e48 <__adddf3>
 10019ac:	100d883a 	mov	r6,r2
 10019b0:	8009883a 	mov	r4,r16
 10019b4:	880b883a 	mov	r5,r17
 10019b8:	180f883a 	mov	r7,r3
 10019bc:	e0800015 	stw	r2,0(fp)
 10019c0:	e0c00115 	stw	r3,4(fp)
 10019c4:	1003dc80 	call	1003dc8 <__subdf3>
 10019c8:	180b883a 	mov	r5,r3
 10019cc:	1009883a 	mov	r4,r2
 10019d0:	900d883a 	mov	r6,r18
 10019d4:	980f883a 	mov	r7,r19
 10019d8:	1003e480 	call	1003e48 <__adddf3>
 10019dc:	180b883a 	mov	r5,r3
 10019e0:	1009883a 	mov	r4,r2
 10019e4:	00ffffc4 	movi	r3,-1
 10019e8:	d8c00b15 	stw	r3,44(sp)
 10019ec:	e1400315 	stw	r5,12(fp)
 10019f0:	e1000215 	stw	r4,8(fp)
 10019f4:	003e3e06 	br	10012f0 <__ieee754_rem_pio2+0x64>
 10019f8:	d9000c17 	ldw	r4,48(sp)
 10019fc:	d9400d17 	ldw	r5,52(sp)
 1001a00:	018b8034 	movhi	r6,11776
 1001a04:	b80f883a 	mov	r7,r23
 1001a08:	1003ebc0 	call	1003ebc <__muldf3>
 1001a0c:	d9000817 	ldw	r4,32(sp)
 1001a10:	d9401217 	ldw	r5,72(sp)
 1001a14:	100d883a 	mov	r6,r2
 1001a18:	180f883a 	mov	r7,r3
 1001a1c:	1025883a 	mov	r18,r2
 1001a20:	1827883a 	mov	r19,r3
 1001a24:	1003dc80 	call	1003dc8 <__subdf3>
 1001a28:	d9400d17 	ldw	r5,52(sp)
 1001a2c:	d9000c17 	ldw	r4,48(sp)
 1001a30:	02094834 	movhi	r8,9504
 1001a34:	42127044 	addi	r8,r8,18881
 1001a38:	024e5f34 	movhi	r9,14716
 1001a3c:	4a60e684 	addi	r9,r9,-31846
 1001a40:	480f883a 	mov	r7,r9
 1001a44:	400d883a 	mov	r6,r8
 1001a48:	182b883a 	mov	r21,r3
 1001a4c:	d8800e15 	stw	r2,56(sp)
 1001a50:	1003ebc0 	call	1003ebc <__muldf3>
 1001a54:	d9000817 	ldw	r4,32(sp)
 1001a58:	d9401217 	ldw	r5,72(sp)
 1001a5c:	d9800e17 	ldw	r6,56(sp)
 1001a60:	a80f883a 	mov	r7,r21
 1001a64:	1021883a 	mov	r16,r2
 1001a68:	1823883a 	mov	r17,r3
 1001a6c:	dd400f15 	stw	r21,60(sp)
 1001a70:	1003dc80 	call	1003dc8 <__subdf3>
 1001a74:	180b883a 	mov	r5,r3
 1001a78:	900d883a 	mov	r6,r18
 1001a7c:	980f883a 	mov	r7,r19
 1001a80:	1009883a 	mov	r4,r2
 1001a84:	1003dc80 	call	1003dc8 <__subdf3>
 1001a88:	180f883a 	mov	r7,r3
 1001a8c:	880b883a 	mov	r5,r17
 1001a90:	8009883a 	mov	r4,r16
 1001a94:	100d883a 	mov	r6,r2
 1001a98:	1003dc80 	call	1003dc8 <__subdf3>
 1001a9c:	d9000e17 	ldw	r4,56(sp)
 1001aa0:	1021883a 	mov	r16,r2
 1001aa4:	1823883a 	mov	r17,r3
 1001aa8:	a80b883a 	mov	r5,r21
 1001aac:	180f883a 	mov	r7,r3
 1001ab0:	003fa606 	br	100194c <__ieee754_rem_pio2+0x6c0>

01001ab4 <__kernel_cos>:
 1001ab4:	defff104 	addi	sp,sp,-60
 1001ab8:	00a00034 	movhi	r2,32768
 1001abc:	10bfffc4 	addi	r2,r2,-1
 1001ac0:	dd800c15 	stw	r22,48(sp)
 1001ac4:	116c703a 	and	r22,r2,r5
 1001ac8:	0005883a 	mov	r2,zero
 1001acc:	dd000a15 	stw	r20,40(sp)
 1001ad0:	d8800215 	stw	r2,8(sp)
 1001ad4:	2029883a 	mov	r20,r4
 1001ad8:	008f9034 	movhi	r2,15936
 1001adc:	10bfffc4 	addi	r2,r2,-1
 1001ae0:	0009883a 	mov	r4,zero
 1001ae4:	dd400b15 	stw	r21,44(sp)
 1001ae8:	dfc00e15 	stw	ra,56(sp)
 1001aec:	ddc00d15 	stw	r23,52(sp)
 1001af0:	dcc00915 	stw	r19,36(sp)
 1001af4:	dc800815 	stw	r18,32(sp)
 1001af8:	dc400715 	stw	r17,28(sp)
 1001afc:	dc000615 	stw	r16,24(sp)
 1001b00:	282b883a 	mov	r21,r5
 1001b04:	d9800415 	stw	r6,16(sp)
 1001b08:	d9c00515 	stw	r7,20(sp)
 1001b0c:	d9000315 	stw	r4,12(sp)
 1001b10:	15809216 	blt	r2,r22,1001d5c <__kernel_cos+0x2a8>
 1001b14:	a009883a 	mov	r4,r20
 1001b18:	10045100 	call	1004510 <__fixdfsi>
 1001b1c:	10011c26 	beq	r2,zero,1001f90 <__kernel_cos+0x4dc>
 1001b20:	a009883a 	mov	r4,r20
 1001b24:	a80b883a 	mov	r5,r21
 1001b28:	a00d883a 	mov	r6,r20
 1001b2c:	a80f883a 	mov	r7,r21
 1001b30:	1003ebc0 	call	1003ebc <__muldf3>
 1001b34:	1021883a 	mov	r16,r2
 1001b38:	1823883a 	mov	r17,r3
 1001b3c:	1025883a 	mov	r18,r2
 1001b40:	1827883a 	mov	r19,r3
 1001b44:	00afa234 	movhi	r2,48776
 1001b48:	108e3504 	addi	r2,r2,14548
 1001b4c:	00ef6a74 	movhi	r3,48553
 1001b50:	18feba44 	addi	r3,r3,-1303
 1001b54:	8009883a 	mov	r4,r16
 1001b58:	880b883a 	mov	r5,r17
 1001b5c:	180f883a 	mov	r7,r3
 1001b60:	100d883a 	mov	r6,r2
 1001b64:	1003ebc0 	call	1003ebc <__muldf3>
 1001b68:	022f6d74 	movhi	r8,48565
 1001b6c:	422c7104 	addi	r8,r8,-20028
 1001b70:	024f88b4 	movhi	r9,15906
 1001b74:	4a7ba784 	addi	r9,r9,-4450
 1001b78:	480f883a 	mov	r7,r9
 1001b7c:	400d883a 	mov	r6,r8
 1001b80:	180b883a 	mov	r5,r3
 1001b84:	1009883a 	mov	r4,r2
 1001b88:	1003e480 	call	1003e48 <__adddf3>
 1001b8c:	180f883a 	mov	r7,r3
 1001b90:	8009883a 	mov	r4,r16
 1001b94:	880b883a 	mov	r5,r17
 1001b98:	100d883a 	mov	r6,r2
 1001b9c:	1003ebc0 	call	1003ebc <__muldf3>
 1001ba0:	02202734 	movhi	r8,32924
 1001ba4:	4214ab44 	addi	r8,r8,21165
 1001ba8:	024fa4b4 	movhi	r9,16018
 1001bac:	4a5f93c4 	addi	r9,r9,32335
 1001bb0:	480f883a 	mov	r7,r9
 1001bb4:	400d883a 	mov	r6,r8
 1001bb8:	180b883a 	mov	r5,r3
 1001bbc:	1009883a 	mov	r4,r2
 1001bc0:	1003dc80 	call	1003dc8 <__subdf3>
 1001bc4:	180f883a 	mov	r7,r3
 1001bc8:	8009883a 	mov	r4,r16
 1001bcc:	880b883a 	mov	r5,r17
 1001bd0:	100d883a 	mov	r6,r2
 1001bd4:	1003ebc0 	call	1003ebc <__muldf3>
 1001bd8:	020672f4 	movhi	r8,6603
 1001bdc:	42056404 	addi	r8,r8,5520
 1001be0:	024fbeb4 	movhi	r9,16122
 1001be4:	4a406804 	addi	r9,r9,416
 1001be8:	480f883a 	mov	r7,r9
 1001bec:	400d883a 	mov	r6,r8
 1001bf0:	180b883a 	mov	r5,r3
 1001bf4:	1009883a 	mov	r4,r2
 1001bf8:	1003e480 	call	1003e48 <__adddf3>
 1001bfc:	180f883a 	mov	r7,r3
 1001c00:	8009883a 	mov	r4,r16
 1001c04:	880b883a 	mov	r5,r17
 1001c08:	100d883a 	mov	r6,r2
 1001c0c:	1003ebc0 	call	1003ebc <__muldf3>
 1001c10:	0205b074 	movhi	r8,5825
 1001c14:	42145dc4 	addi	r8,r8,20855
 1001c18:	024fd5f4 	movhi	r9,16215
 1001c1c:	4a705b04 	addi	r9,r9,-16020
 1001c20:	480f883a 	mov	r7,r9
 1001c24:	400d883a 	mov	r6,r8
 1001c28:	180b883a 	mov	r5,r3
 1001c2c:	1009883a 	mov	r4,r2
 1001c30:	1003dc80 	call	1003dc8 <__subdf3>
 1001c34:	180f883a 	mov	r7,r3
 1001c38:	8009883a 	mov	r4,r16
 1001c3c:	880b883a 	mov	r5,r17
 1001c40:	100d883a 	mov	r6,r2
 1001c44:	1003ebc0 	call	1003ebc <__muldf3>
 1001c48:	02155574 	movhi	r8,21845
 1001c4c:	42155304 	addi	r8,r8,21836
 1001c50:	024fe974 	movhi	r9,16293
 1001c54:	4a555544 	addi	r9,r9,21845
 1001c58:	480f883a 	mov	r7,r9
 1001c5c:	400d883a 	mov	r6,r8
 1001c60:	180b883a 	mov	r5,r3
 1001c64:	1009883a 	mov	r4,r2
 1001c68:	1003e480 	call	1003e48 <__adddf3>
 1001c6c:	180f883a 	mov	r7,r3
 1001c70:	880b883a 	mov	r5,r17
 1001c74:	8009883a 	mov	r4,r16
 1001c78:	100d883a 	mov	r6,r2
 1001c7c:	1003ebc0 	call	1003ebc <__muldf3>
 1001c80:	1021883a 	mov	r16,r2
 1001c84:	1823883a 	mov	r17,r3
 1001c88:	0005883a 	mov	r2,zero
 1001c8c:	00cff834 	movhi	r3,16352
 1001c90:	9009883a 	mov	r4,r18
 1001c94:	980b883a 	mov	r5,r19
 1001c98:	180f883a 	mov	r7,r3
 1001c9c:	100d883a 	mov	r6,r2
 1001ca0:	1003ebc0 	call	1003ebc <__muldf3>
 1001ca4:	980b883a 	mov	r5,r19
 1001ca8:	880f883a 	mov	r7,r17
 1001cac:	9009883a 	mov	r4,r18
 1001cb0:	800d883a 	mov	r6,r16
 1001cb4:	1025883a 	mov	r18,r2
 1001cb8:	1827883a 	mov	r19,r3
 1001cbc:	1003ebc0 	call	1003ebc <__muldf3>
 1001cc0:	d9c00517 	ldw	r7,20(sp)
 1001cc4:	d9800417 	ldw	r6,16(sp)
 1001cc8:	a80b883a 	mov	r5,r21
 1001ccc:	a009883a 	mov	r4,r20
 1001cd0:	1021883a 	mov	r16,r2
 1001cd4:	1823883a 	mov	r17,r3
 1001cd8:	1003ebc0 	call	1003ebc <__muldf3>
 1001cdc:	180f883a 	mov	r7,r3
 1001ce0:	880b883a 	mov	r5,r17
 1001ce4:	8009883a 	mov	r4,r16
 1001ce8:	100d883a 	mov	r6,r2
 1001cec:	1003dc80 	call	1003dc8 <__subdf3>
 1001cf0:	180f883a 	mov	r7,r3
 1001cf4:	980b883a 	mov	r5,r19
 1001cf8:	9009883a 	mov	r4,r18
 1001cfc:	100d883a 	mov	r6,r2
 1001d00:	1003dc80 	call	1003dc8 <__subdf3>
 1001d04:	0011883a 	mov	r8,zero
 1001d08:	024ffc34 	movhi	r9,16368
 1001d0c:	480b883a 	mov	r5,r9
 1001d10:	180f883a 	mov	r7,r3
 1001d14:	4009883a 	mov	r4,r8
 1001d18:	100d883a 	mov	r6,r2
 1001d1c:	1003dc80 	call	1003dc8 <__subdf3>
 1001d20:	100d883a 	mov	r6,r2
 1001d24:	180f883a 	mov	r7,r3
 1001d28:	3005883a 	mov	r2,r6
 1001d2c:	3807883a 	mov	r3,r7
 1001d30:	dfc00e17 	ldw	ra,56(sp)
 1001d34:	ddc00d17 	ldw	r23,52(sp)
 1001d38:	dd800c17 	ldw	r22,48(sp)
 1001d3c:	dd400b17 	ldw	r21,44(sp)
 1001d40:	dd000a17 	ldw	r20,40(sp)
 1001d44:	dcc00917 	ldw	r19,36(sp)
 1001d48:	dc800817 	ldw	r18,32(sp)
 1001d4c:	dc400717 	ldw	r17,28(sp)
 1001d50:	dc000617 	ldw	r16,24(sp)
 1001d54:	dec00f04 	addi	sp,sp,60
 1001d58:	f800283a 	ret
 1001d5c:	280f883a 	mov	r7,r5
 1001d60:	a009883a 	mov	r4,r20
 1001d64:	a00d883a 	mov	r6,r20
 1001d68:	1003ebc0 	call	1003ebc <__muldf3>
 1001d6c:	1021883a 	mov	r16,r2
 1001d70:	1823883a 	mov	r17,r3
 1001d74:	1025883a 	mov	r18,r2
 1001d78:	1827883a 	mov	r19,r3
 1001d7c:	00afa234 	movhi	r2,48776
 1001d80:	108e3504 	addi	r2,r2,14548
 1001d84:	00ef6a74 	movhi	r3,48553
 1001d88:	18feba44 	addi	r3,r3,-1303
 1001d8c:	8009883a 	mov	r4,r16
 1001d90:	880b883a 	mov	r5,r17
 1001d94:	180f883a 	mov	r7,r3
 1001d98:	100d883a 	mov	r6,r2
 1001d9c:	1003ebc0 	call	1003ebc <__muldf3>
 1001da0:	022f6d74 	movhi	r8,48565
 1001da4:	422c7104 	addi	r8,r8,-20028
 1001da8:	024f88b4 	movhi	r9,15906
 1001dac:	4a7ba784 	addi	r9,r9,-4450
 1001db0:	480f883a 	mov	r7,r9
 1001db4:	400d883a 	mov	r6,r8
 1001db8:	180b883a 	mov	r5,r3
 1001dbc:	1009883a 	mov	r4,r2
 1001dc0:	1003e480 	call	1003e48 <__adddf3>
 1001dc4:	180f883a 	mov	r7,r3
 1001dc8:	8009883a 	mov	r4,r16
 1001dcc:	880b883a 	mov	r5,r17
 1001dd0:	100d883a 	mov	r6,r2
 1001dd4:	1003ebc0 	call	1003ebc <__muldf3>
 1001dd8:	02202734 	movhi	r8,32924
 1001ddc:	4214ab44 	addi	r8,r8,21165
 1001de0:	024fa4b4 	movhi	r9,16018
 1001de4:	4a5f93c4 	addi	r9,r9,32335
 1001de8:	480f883a 	mov	r7,r9
 1001dec:	400d883a 	mov	r6,r8
 1001df0:	180b883a 	mov	r5,r3
 1001df4:	1009883a 	mov	r4,r2
 1001df8:	1003dc80 	call	1003dc8 <__subdf3>
 1001dfc:	180f883a 	mov	r7,r3
 1001e00:	8009883a 	mov	r4,r16
 1001e04:	880b883a 	mov	r5,r17
 1001e08:	100d883a 	mov	r6,r2
 1001e0c:	1003ebc0 	call	1003ebc <__muldf3>
 1001e10:	020672f4 	movhi	r8,6603
 1001e14:	42056404 	addi	r8,r8,5520
 1001e18:	024fbeb4 	movhi	r9,16122
 1001e1c:	4a406804 	addi	r9,r9,416
 1001e20:	480f883a 	mov	r7,r9
 1001e24:	400d883a 	mov	r6,r8
 1001e28:	180b883a 	mov	r5,r3
 1001e2c:	1009883a 	mov	r4,r2
 1001e30:	1003e480 	call	1003e48 <__adddf3>
 1001e34:	180f883a 	mov	r7,r3
 1001e38:	8009883a 	mov	r4,r16
 1001e3c:	880b883a 	mov	r5,r17
 1001e40:	100d883a 	mov	r6,r2
 1001e44:	1003ebc0 	call	1003ebc <__muldf3>
 1001e48:	0205b074 	movhi	r8,5825
 1001e4c:	42145dc4 	addi	r8,r8,20855
 1001e50:	024fd5f4 	movhi	r9,16215
 1001e54:	4a705b04 	addi	r9,r9,-16020
 1001e58:	480f883a 	mov	r7,r9
 1001e5c:	400d883a 	mov	r6,r8
 1001e60:	180b883a 	mov	r5,r3
 1001e64:	1009883a 	mov	r4,r2
 1001e68:	1003dc80 	call	1003dc8 <__subdf3>
 1001e6c:	180f883a 	mov	r7,r3
 1001e70:	8009883a 	mov	r4,r16
 1001e74:	880b883a 	mov	r5,r17
 1001e78:	100d883a 	mov	r6,r2
 1001e7c:	1003ebc0 	call	1003ebc <__muldf3>
 1001e80:	02155574 	movhi	r8,21845
 1001e84:	42155304 	addi	r8,r8,21836
 1001e88:	024fe974 	movhi	r9,16293
 1001e8c:	4a555544 	addi	r9,r9,21845
 1001e90:	480f883a 	mov	r7,r9
 1001e94:	400d883a 	mov	r6,r8
 1001e98:	180b883a 	mov	r5,r3
 1001e9c:	1009883a 	mov	r4,r2
 1001ea0:	1003e480 	call	1003e48 <__adddf3>
 1001ea4:	180f883a 	mov	r7,r3
 1001ea8:	880b883a 	mov	r5,r17
 1001eac:	8009883a 	mov	r4,r16
 1001eb0:	100d883a 	mov	r6,r2
 1001eb4:	1003ebc0 	call	1003ebc <__muldf3>
 1001eb8:	1021883a 	mov	r16,r2
 1001ebc:	008ff4f4 	movhi	r2,16339
 1001ec0:	108ccc84 	addi	r2,r2,13106
 1001ec4:	1823883a 	mov	r17,r3
 1001ec8:	15bf6f0e 	bge	r2,r22,1001c88 <__kernel_cos+0x1d4>
 1001ecc:	008ffa74 	movhi	r2,16361
 1001ed0:	1580320e 	bge	r2,r22,1001f9c <__kernel_cos+0x4e8>
 1001ed4:	0005883a 	mov	r2,zero
 1001ed8:	010ff9f4 	movhi	r4,16359
 1001edc:	002d883a 	mov	r22,zero
 1001ee0:	d8800015 	stw	r2,0(sp)
 1001ee4:	05cff4b4 	movhi	r23,16338
 1001ee8:	d9000115 	stw	r4,4(sp)
 1001eec:	0005883a 	mov	r2,zero
 1001ef0:	00cff834 	movhi	r3,16352
 1001ef4:	9009883a 	mov	r4,r18
 1001ef8:	980b883a 	mov	r5,r19
 1001efc:	180f883a 	mov	r7,r3
 1001f00:	100d883a 	mov	r6,r2
 1001f04:	1003ebc0 	call	1003ebc <__muldf3>
 1001f08:	180b883a 	mov	r5,r3
 1001f0c:	b80f883a 	mov	r7,r23
 1001f10:	1009883a 	mov	r4,r2
 1001f14:	b00d883a 	mov	r6,r22
 1001f18:	1003dc80 	call	1003dc8 <__subdf3>
 1001f1c:	980b883a 	mov	r5,r19
 1001f20:	880f883a 	mov	r7,r17
 1001f24:	9009883a 	mov	r4,r18
 1001f28:	800d883a 	mov	r6,r16
 1001f2c:	1025883a 	mov	r18,r2
 1001f30:	1827883a 	mov	r19,r3
 1001f34:	1003ebc0 	call	1003ebc <__muldf3>
 1001f38:	d9c00517 	ldw	r7,20(sp)
 1001f3c:	d9800417 	ldw	r6,16(sp)
 1001f40:	a80b883a 	mov	r5,r21
 1001f44:	a009883a 	mov	r4,r20
 1001f48:	1021883a 	mov	r16,r2
 1001f4c:	1823883a 	mov	r17,r3
 1001f50:	1003ebc0 	call	1003ebc <__muldf3>
 1001f54:	180f883a 	mov	r7,r3
 1001f58:	880b883a 	mov	r5,r17
 1001f5c:	8009883a 	mov	r4,r16
 1001f60:	100d883a 	mov	r6,r2
 1001f64:	1003dc80 	call	1003dc8 <__subdf3>
 1001f68:	180f883a 	mov	r7,r3
 1001f6c:	980b883a 	mov	r5,r19
 1001f70:	9009883a 	mov	r4,r18
 1001f74:	100d883a 	mov	r6,r2
 1001f78:	1003dc80 	call	1003dc8 <__subdf3>
 1001f7c:	d9400117 	ldw	r5,4(sp)
 1001f80:	d9000017 	ldw	r4,0(sp)
 1001f84:	180f883a 	mov	r7,r3
 1001f88:	100d883a 	mov	r6,r2
 1001f8c:	003f6306 	br	1001d1c <__kernel_cos+0x268>
 1001f90:	000d883a 	mov	r6,zero
 1001f94:	01cffc34 	movhi	r7,16368
 1001f98:	003f6306 	br	1001d28 <__kernel_cos+0x274>
 1001f9c:	00bff834 	movhi	r2,65504
 1001fa0:	b0ad883a 	add	r22,r22,r2
 1001fa4:	dd800315 	stw	r22,12(sp)
 1001fa8:	d9000317 	ldw	r4,12(sp)
 1001fac:	0005883a 	mov	r2,zero
 1001fb0:	00cffc34 	movhi	r3,16368
 1001fb4:	002d883a 	mov	r22,zero
 1001fb8:	200f883a 	mov	r7,r4
 1001fbc:	202f883a 	mov	r23,r4
 1001fc0:	180b883a 	mov	r5,r3
 1001fc4:	1009883a 	mov	r4,r2
 1001fc8:	b00d883a 	mov	r6,r22
 1001fcc:	d8800215 	stw	r2,8(sp)
 1001fd0:	1003dc80 	call	1003dc8 <__subdf3>
 1001fd4:	d8800015 	stw	r2,0(sp)
 1001fd8:	d8c00115 	stw	r3,4(sp)
 1001fdc:	003fc306 	br	1001eec <__kernel_cos+0x438>

01001fe0 <__kernel_rem_pio2>:
 1001fe0:	deff5304 	addi	sp,sp,-692
 1001fe4:	d880ad17 	ldw	r2,692(sp)
 1001fe8:	d9009615 	stw	r4,600(sp)
 1001fec:	d9409715 	stw	r5,604(sp)
 1001ff0:	1087883a 	add	r3,r2,r2
 1001ff4:	18c7883a 	add	r3,r3,r3
 1001ff8:	00804074 	movhi	r2,257
 1001ffc:	10899504 	addi	r2,r2,9812
 1002000:	1887883a 	add	r3,r3,r2
 1002004:	18c00017 	ldw	r3,0(r3)
 1002008:	313fff44 	addi	r4,r6,-3
 100200c:	01400604 	movi	r5,24
 1002010:	df00ab15 	stw	fp,684(sp)
 1002014:	dc00a315 	stw	r16,652(sp)
 1002018:	d8c09515 	stw	r3,596(sp)
 100201c:	dfc0ac15 	stw	ra,688(sp)
 1002020:	ddc0aa15 	stw	r23,680(sp)
 1002024:	dd80a915 	stw	r22,676(sp)
 1002028:	dd40a815 	stw	r21,672(sp)
 100202c:	dd00a715 	stw	r20,668(sp)
 1002030:	dcc0a615 	stw	r19,664(sp)
 1002034:	dc80a515 	stw	r18,660(sp)
 1002038:	dc40a415 	stw	r17,656(sp)
 100203c:	3021883a 	mov	r16,r6
 1002040:	d9c09815 	stw	r7,608(sp)
 1002044:	100469c0 	call	100469c <__divsi3>
 1002048:	d8c09817 	ldw	r3,608(sp)
 100204c:	d8808c15 	stw	r2,560(sp)
 1002050:	1f3fffc4 	addi	fp,r3,-1
 1002054:	10031a16 	blt	r2,zero,1002cc0 <__kernel_rem_pio2+0xce0>
 1002058:	d9008c17 	ldw	r4,560(sp)
 100205c:	017ffa04 	movi	r5,-24
 1002060:	100476c0 	call	100476c <__mulsi3>
 1002064:	d9009517 	ldw	r4,596(sp)
 1002068:	8085883a 	add	r2,r16,r2
 100206c:	10bffa04 	addi	r2,r2,-24
 1002070:	2707883a 	add	r3,r4,fp
 1002074:	d8809315 	stw	r2,588(sp)
 1002078:	18001616 	blt	r3,zero,10020d4 <__kernel_rem_pio2+0xf4>
 100207c:	d9408c17 	ldw	r5,560(sp)
 1002080:	d980ae17 	ldw	r6,696(sp)
 1002084:	dc801404 	addi	r18,sp,80
 1002088:	2f21c83a 	sub	r16,r5,fp
 100208c:	8405883a 	add	r2,r16,r16
 1002090:	1085883a 	add	r2,r2,r2
 1002094:	30a3883a 	add	r17,r6,r2
 1002098:	80e7883a 	add	r19,r16,r3
 100209c:	00000106 	br	10020a4 <__kernel_rem_pio2+0xc4>
 10020a0:	84000044 	addi	r16,r16,1
 10020a4:	0009883a 	mov	r4,zero
 10020a8:	000b883a 	mov	r5,zero
 10020ac:	80000416 	blt	r16,zero,10020c0 <__kernel_rem_pio2+0xe0>
 10020b0:	89000017 	ldw	r4,0(r17)
 10020b4:	10044180 	call	1004418 <__floatsidf>
 10020b8:	1009883a 	mov	r4,r2
 10020bc:	180b883a 	mov	r5,r3
 10020c0:	91400115 	stw	r5,4(r18)
 10020c4:	91000015 	stw	r4,0(r18)
 10020c8:	8c400104 	addi	r17,r17,4
 10020cc:	94800204 	addi	r18,r18,8
 10020d0:	84fff31e 	bne	r16,r19,10020a0 <__kernel_rem_pio2+0xc0>
 10020d4:	d9c09517 	ldw	r7,596(sp)
 10020d8:	38002416 	blt	r7,zero,100216c <__kernel_rem_pio2+0x18c>
 10020dc:	da809817 	ldw	r10,608(sp)
 10020e0:	e029883a 	mov	r20,fp
 10020e4:	dd406404 	addi	r21,sp,400
 10020e8:	3aaf883a 	add	r23,r7,r10
 10020ec:	e02c403a 	cmpge	r22,fp,zero
 10020f0:	b0023e26 	beq	r22,zero,10029ec <__kernel_rem_pio2+0xa0c>
 10020f4:	dcc09617 	ldw	r19,600(sp)
 10020f8:	0021883a 	mov	r16,zero
 10020fc:	0025883a 	mov	r18,zero
 1002100:	0023883a 	mov	r17,zero
 1002104:	a489c83a 	sub	r4,r20,r18
 1002108:	200890fa 	slli	r4,r4,3
 100210c:	99800017 	ldw	r6,0(r19)
 1002110:	99c00117 	ldw	r7,4(r19)
 1002114:	26c9883a 	add	r4,r4,sp
 1002118:	20c01517 	ldw	r3,84(r4)
 100211c:	20801417 	ldw	r2,80(r4)
 1002120:	94800044 	addi	r18,r18,1
 1002124:	180b883a 	mov	r5,r3
 1002128:	1009883a 	mov	r4,r2
 100212c:	1003ebc0 	call	1003ebc <__muldf3>
 1002130:	180f883a 	mov	r7,r3
 1002134:	880b883a 	mov	r5,r17
 1002138:	8009883a 	mov	r4,r16
 100213c:	100d883a 	mov	r6,r2
 1002140:	1003e480 	call	1003e48 <__adddf3>
 1002144:	1021883a 	mov	r16,r2
 1002148:	d8809817 	ldw	r2,608(sp)
 100214c:	9cc00204 	addi	r19,r19,8
 1002150:	1823883a 	mov	r17,r3
 1002154:	14bfeb1e 	bne	r2,r18,1002104 <__kernel_rem_pio2+0x124>
 1002158:	a5000044 	addi	r20,r20,1
 100215c:	ac400115 	stw	r17,4(r21)
 1002160:	ac000015 	stw	r16,0(r21)
 1002164:	ad400204 	addi	r21,r21,8
 1002168:	a5ffe11e 	bne	r20,r23,10020f0 <__kernel_rem_pio2+0x110>
 100216c:	d8c09517 	ldw	r3,596(sp)
 1002170:	d9409317 	ldw	r5,588(sp)
 1002174:	e038403a 	cmpge	fp,fp,zero
 1002178:	d8c08d15 	stw	r3,564(sp)
 100217c:	d9008d17 	ldw	r4,564(sp)
 1002180:	18c5883a 	add	r2,r3,r3
 1002184:	10c7883a 	add	r3,r2,r3
 1002188:	1907883a 	add	r3,r3,r4
 100218c:	1085883a 	add	r2,r2,r2
 1002190:	16c5883a 	add	r2,r2,sp
 1002194:	1ec7883a 	add	r3,r3,sp
 1002198:	29400050 	cmplti	r5,r5,1
 100219c:	df00a215 	stw	fp,648(sp)
 10021a0:	d8809915 	stw	r2,612(sp)
 10021a4:	d8c0a115 	stw	r3,644(sp)
 10021a8:	d940a015 	stw	r5,640(sp)
 10021ac:	d9808d17 	ldw	r6,564(sp)
 10021b0:	300490fa 	slli	r2,r6,3
 10021b4:	16c5883a 	add	r2,r2,sp
 10021b8:	15006417 	ldw	r20,400(r2)
 10021bc:	15406517 	ldw	r21,404(r2)
 10021c0:	01802e0e 	bge	zero,r6,100227c <__kernel_rem_pio2+0x29c>
 10021c4:	102d883a 	mov	r22,r2
 10021c8:	302f883a 	mov	r23,r6
 10021cc:	d839883a 	mov	fp,sp
 10021d0:	0005883a 	mov	r2,zero
 10021d4:	00cf9c34 	movhi	r3,15984
 10021d8:	180f883a 	mov	r7,r3
 10021dc:	100d883a 	mov	r6,r2
 10021e0:	a009883a 	mov	r4,r20
 10021e4:	a80b883a 	mov	r5,r21
 10021e8:	1003ebc0 	call	1003ebc <__muldf3>
 10021ec:	180b883a 	mov	r5,r3
 10021f0:	1009883a 	mov	r4,r2
 10021f4:	10045100 	call	1004510 <__fixdfsi>
 10021f8:	1009883a 	mov	r4,r2
 10021fc:	10044180 	call	1004418 <__floatsidf>
 1002200:	1021883a 	mov	r16,r2
 1002204:	1823883a 	mov	r17,r3
 1002208:	0005883a 	mov	r2,zero
 100220c:	00f05c34 	movhi	r3,49520
 1002210:	180f883a 	mov	r7,r3
 1002214:	8009883a 	mov	r4,r16
 1002218:	880b883a 	mov	r5,r17
 100221c:	100d883a 	mov	r6,r2
 1002220:	1003ebc0 	call	1003ebc <__muldf3>
 1002224:	180b883a 	mov	r5,r3
 1002228:	a80f883a 	mov	r7,r21
 100222c:	a00d883a 	mov	r6,r20
 1002230:	1009883a 	mov	r4,r2
 1002234:	1003e480 	call	1003e48 <__adddf3>
 1002238:	180b883a 	mov	r5,r3
 100223c:	1009883a 	mov	r4,r2
 1002240:	10045100 	call	1004510 <__fixdfsi>
 1002244:	e0800015 	stw	r2,0(fp)
 1002248:	b5bffe04 	addi	r22,r22,-8
 100224c:	b0806417 	ldw	r2,400(r22)
 1002250:	b0c06517 	ldw	r3,404(r22)
 1002254:	8009883a 	mov	r4,r16
 1002258:	880b883a 	mov	r5,r17
 100225c:	180f883a 	mov	r7,r3
 1002260:	100d883a 	mov	r6,r2
 1002264:	1003e480 	call	1003e48 <__adddf3>
 1002268:	bdffffc4 	addi	r23,r23,-1
 100226c:	e7000104 	addi	fp,fp,4
 1002270:	1029883a 	mov	r20,r2
 1002274:	182b883a 	mov	r21,r3
 1002278:	b83fd51e 	bne	r23,zero,10021d0 <__kernel_rem_pio2+0x1f0>
 100227c:	d9809317 	ldw	r6,588(sp)
 1002280:	a80b883a 	mov	r5,r21
 1002284:	a009883a 	mov	r4,r20
 1002288:	10033b80 	call	10033b8 <scalbn>
 100228c:	0009883a 	mov	r4,zero
 1002290:	014ff034 	movhi	r5,16320
 1002294:	280f883a 	mov	r7,r5
 1002298:	200d883a 	mov	r6,r4
 100229c:	180b883a 	mov	r5,r3
 10022a0:	1009883a 	mov	r4,r2
 10022a4:	1021883a 	mov	r16,r2
 10022a8:	1823883a 	mov	r17,r3
 10022ac:	1003ebc0 	call	1003ebc <__muldf3>
 10022b0:	180b883a 	mov	r5,r3
 10022b4:	1009883a 	mov	r4,r2
 10022b8:	10031940 	call	1003194 <floor>
 10022bc:	0011883a 	mov	r8,zero
 10022c0:	02700834 	movhi	r9,49184
 10022c4:	480f883a 	mov	r7,r9
 10022c8:	400d883a 	mov	r6,r8
 10022cc:	180b883a 	mov	r5,r3
 10022d0:	1009883a 	mov	r4,r2
 10022d4:	1003ebc0 	call	1003ebc <__muldf3>
 10022d8:	180f883a 	mov	r7,r3
 10022dc:	100d883a 	mov	r6,r2
 10022e0:	880b883a 	mov	r5,r17
 10022e4:	8009883a 	mov	r4,r16
 10022e8:	1003e480 	call	1003e48 <__adddf3>
 10022ec:	180b883a 	mov	r5,r3
 10022f0:	1009883a 	mov	r4,r2
 10022f4:	1823883a 	mov	r17,r3
 10022f8:	1021883a 	mov	r16,r2
 10022fc:	10045100 	call	1004510 <__fixdfsi>
 1002300:	1009883a 	mov	r4,r2
 1002304:	d8809415 	stw	r2,592(sp)
 1002308:	10044180 	call	1004418 <__floatsidf>
 100230c:	880b883a 	mov	r5,r17
 1002310:	8009883a 	mov	r4,r16
 1002314:	180f883a 	mov	r7,r3
 1002318:	100d883a 	mov	r6,r2
 100231c:	1003dc80 	call	1003dc8 <__subdf3>
 1002320:	d9c0a017 	ldw	r7,640(sp)
 1002324:	180d883a 	mov	r6,r3
 1002328:	1021883a 	mov	r16,r2
 100232c:	1823883a 	mov	r17,r3
 1002330:	38017d1e 	bne	r7,zero,1002928 <__kernel_rem_pio2+0x948>
 1002334:	da808d17 	ldw	r10,564(sp)
 1002338:	d9009317 	ldw	r4,588(sp)
 100233c:	00c00604 	movi	r3,24
 1002340:	50bfffc4 	addi	r2,r10,-1
 1002344:	1085883a 	add	r2,r2,r2
 1002348:	1085883a 	add	r2,r2,r2
 100234c:	16c5883a 	add	r2,r2,sp
 1002350:	11400017 	ldw	r5,0(r2)
 1002354:	1907c83a 	sub	r3,r3,r4
 1002358:	d9c09317 	ldw	r7,588(sp)
 100235c:	28cdd83a 	sra	r6,r5,r3
 1002360:	010005c4 	movi	r4,23
 1002364:	da809417 	ldw	r10,592(sp)
 1002368:	30c6983a 	sll	r3,r6,r3
 100236c:	21c9c83a 	sub	r4,r4,r7
 1002370:	5195883a 	add	r10,r10,r6
 1002374:	28cbc83a 	sub	r5,r5,r3
 1002378:	2909d83a 	sra	r4,r5,r4
 100237c:	da809415 	stw	r10,592(sp)
 1002380:	11400015 	stw	r5,0(r2)
 1002384:	d9009215 	stw	r4,584(sp)
 1002388:	d9409217 	ldw	r5,584(sp)
 100238c:	0140270e 	bge	zero,r5,100242c <__kernel_rem_pio2+0x44c>
 1002390:	d9809417 	ldw	r6,592(sp)
 1002394:	d9c08d17 	ldw	r7,564(sp)
 1002398:	31800044 	addi	r6,r6,1
 100239c:	d9809415 	stw	r6,592(sp)
 10023a0:	01c1a50e 	bge	zero,r7,1002a38 <__kernel_rem_pio2+0xa58>
 10023a4:	002d883a 	mov	r22,zero
 10023a8:	000b883a 	mov	r5,zero
 10023ac:	d809883a 	mov	r4,sp
 10023b0:	01c04034 	movhi	r7,256
 10023b4:	01804034 	movhi	r6,256
 10023b8:	31bfffc4 	addi	r6,r6,-1
 10023bc:	00000806 	br	10023e0 <__kernel_rem_pio2+0x400>
 10023c0:	38c5c83a 	sub	r2,r7,r3
 10023c4:	18000226 	beq	r3,zero,10023d0 <__kernel_rem_pio2+0x3f0>
 10023c8:	05800044 	movi	r22,1
 10023cc:	20800015 	stw	r2,0(r4)
 10023d0:	da808d17 	ldw	r10,564(sp)
 10023d4:	29400044 	addi	r5,r5,1
 10023d8:	21000104 	addi	r4,r4,4
 10023dc:	51400926 	beq	r10,r5,1002404 <__kernel_rem_pio2+0x424>
 10023e0:	b004c03a 	cmpne	r2,r22,zero
 10023e4:	20c00017 	ldw	r3,0(r4)
 10023e8:	103ff526 	beq	r2,zero,10023c0 <__kernel_rem_pio2+0x3e0>
 10023ec:	da808d17 	ldw	r10,564(sp)
 10023f0:	30c5c83a 	sub	r2,r6,r3
 10023f4:	29400044 	addi	r5,r5,1
 10023f8:	20800015 	stw	r2,0(r4)
 10023fc:	21000104 	addi	r4,r4,4
 1002400:	517ff71e 	bne	r10,r5,10023e0 <__kernel_rem_pio2+0x400>
 1002404:	d880a017 	ldw	r2,640(sp)
 1002408:	1000051e 	bne	r2,zero,1002420 <__kernel_rem_pio2+0x440>
 100240c:	d8c09317 	ldw	r3,588(sp)
 1002410:	00800044 	movi	r2,1
 1002414:	18814e26 	beq	r3,r2,1002950 <__kernel_rem_pio2+0x970>
 1002418:	00800084 	movi	r2,2
 100241c:	18815826 	beq	r3,r2,1002980 <__kernel_rem_pio2+0x9a0>
 1002420:	d9c09217 	ldw	r7,584(sp)
 1002424:	00800084 	movi	r2,2
 1002428:	38806926 	beq	r7,r2,10025d0 <__kernel_rem_pio2+0x5f0>
 100242c:	000d883a 	mov	r6,zero
 1002430:	000f883a 	mov	r7,zero
 1002434:	8009883a 	mov	r4,r16
 1002438:	880b883a 	mov	r5,r17
 100243c:	10042800 	call	1004280 <__eqdf2>
 1002440:	1000811e 	bne	r2,zero,1002648 <__kernel_rem_pio2+0x668>
 1002444:	da808d17 	ldw	r10,564(sp)
 1002448:	d8809517 	ldw	r2,596(sp)
 100244c:	51bfffc4 	addi	r6,r10,-1
 1002450:	30800c16 	blt	r6,r2,1002484 <__kernel_rem_pio2+0x4a4>
 1002454:	3185883a 	add	r2,r6,r6
 1002458:	1085883a 	add	r2,r2,r2
 100245c:	16c9883a 	add	r4,r2,sp
 1002460:	3007883a 	mov	r3,r6
 1002464:	000b883a 	mov	r5,zero
 1002468:	20800017 	ldw	r2,0(r4)
 100246c:	d9c09517 	ldw	r7,596(sp)
 1002470:	18ffffc4 	addi	r3,r3,-1
 1002474:	213fff04 	addi	r4,r4,-4
 1002478:	288ab03a 	or	r5,r5,r2
 100247c:	19fffa0e 	bge	r3,r7,1002468 <__kernel_rem_pio2+0x488>
 1002480:	2800791e 	bne	r5,zero,1002668 <__kernel_rem_pio2+0x688>
 1002484:	da809917 	ldw	r10,612(sp)
 1002488:	50bfff17 	ldw	r2,-4(r10)
 100248c:	1001511e 	bne	r2,zero,10029d4 <__kernel_rem_pio2+0x9f4>
 1002490:	d880a117 	ldw	r2,644(sp)
 1002494:	01000044 	movi	r4,1
 1002498:	10ffff04 	addi	r3,r2,-4
 100249c:	18ffff04 	addi	r3,r3,-4
 10024a0:	18800017 	ldw	r2,0(r3)
 10024a4:	21000044 	addi	r4,r4,1
 10024a8:	103ffc26 	beq	r2,zero,100249c <__kernel_rem_pio2+0x4bc>
 10024ac:	d8c08d17 	ldw	r3,564(sp)
 10024b0:	192f883a 	add	r23,r3,r4
 10024b4:	1f000044 	addi	fp,r3,1
 10024b8:	bf00020e 	bge	r23,fp,10024c4 <__kernel_rem_pio2+0x4e4>
 10024bc:	ddc08d15 	stw	r23,564(sp)
 10024c0:	003f3a06 	br	10021ac <__kernel_rem_pio2+0x1cc>
 10024c4:	d9408c17 	ldw	r5,560(sp)
 10024c8:	d9009817 	ldw	r4,608(sp)
 10024cc:	da80ae17 	ldw	r10,696(sp)
 10024d0:	1945883a 	add	r2,r3,r5
 10024d4:	190f883a 	add	r7,r3,r4
 10024d8:	1085883a 	add	r2,r2,r2
 10024dc:	380a90fa 	slli	r5,r7,3
 10024e0:	e00c90fa 	slli	r6,fp,3
 10024e4:	1085883a 	add	r2,r2,r2
 10024e8:	5085883a 	add	r2,r10,r2
 10024ec:	d8c01404 	addi	r3,sp,80
 10024f0:	d9006404 	addi	r4,sp,400
 10024f4:	10800104 	addi	r2,r2,4
 10024f8:	196b883a 	add	r21,r3,r5
 10024fc:	21a1883a 	add	r16,r4,r6
 1002500:	d8809115 	stw	r2,580(sp)
 1002504:	d9c09015 	stw	r7,576(sp)
 1002508:	d8809117 	ldw	r2,580(sp)
 100250c:	11000017 	ldw	r4,0(r2)
 1002510:	10044180 	call	1004418 <__floatsidf>
 1002514:	a8c00115 	stw	r3,4(r21)
 1002518:	d8c0a217 	ldw	r3,648(sp)
 100251c:	a8800015 	stw	r2,0(r21)
 1002520:	18002826 	beq	r3,zero,10025c4 <__kernel_rem_pio2+0x5e4>
 1002524:	d9009017 	ldw	r4,576(sp)
 1002528:	dd009617 	ldw	r20,600(sp)
 100252c:	0023883a 	mov	r17,zero
 1002530:	200490fa 	slli	r2,r4,3
 1002534:	002d883a 	mov	r22,zero
 1002538:	0025883a 	mov	r18,zero
 100253c:	16e7883a 	add	r19,r2,sp
 1002540:	98801417 	ldw	r2,80(r19)
 1002544:	98c01517 	ldw	r3,84(r19)
 1002548:	a1800017 	ldw	r6,0(r20)
 100254c:	a1c00117 	ldw	r7,4(r20)
 1002550:	180b883a 	mov	r5,r3
 1002554:	1009883a 	mov	r4,r2
 1002558:	1003ebc0 	call	1003ebc <__muldf3>
 100255c:	180f883a 	mov	r7,r3
 1002560:	900b883a 	mov	r5,r18
 1002564:	8809883a 	mov	r4,r17
 1002568:	100d883a 	mov	r6,r2
 100256c:	1003e480 	call	1003e48 <__adddf3>
 1002570:	d9409817 	ldw	r5,608(sp)
 1002574:	b5800044 	addi	r22,r22,1
 1002578:	9cfffe04 	addi	r19,r19,-8
 100257c:	1023883a 	mov	r17,r2
 1002580:	1825883a 	mov	r18,r3
 1002584:	a5000204 	addi	r20,r20,8
 1002588:	2dbfed1e 	bne	r5,r22,1002540 <__kernel_rem_pio2+0x560>
 100258c:	d9809117 	ldw	r6,580(sp)
 1002590:	d9c09017 	ldw	r7,576(sp)
 1002594:	e7000044 	addi	fp,fp,1
 1002598:	31800104 	addi	r6,r6,4
 100259c:	39c00044 	addi	r7,r7,1
 10025a0:	84800115 	stw	r18,4(r16)
 10025a4:	84400015 	stw	r17,0(r16)
 10025a8:	d9809115 	stw	r6,580(sp)
 10025ac:	ad400204 	addi	r21,r21,8
 10025b0:	84000204 	addi	r16,r16,8
 10025b4:	d9c09015 	stw	r7,576(sp)
 10025b8:	bf3fd30e 	bge	r23,fp,1002508 <__kernel_rem_pio2+0x528>
 10025bc:	ddc08d15 	stw	r23,564(sp)
 10025c0:	003efa06 	br	10021ac <__kernel_rem_pio2+0x1cc>
 10025c4:	0023883a 	mov	r17,zero
 10025c8:	0025883a 	mov	r18,zero
 10025cc:	003fef06 	br	100258c <__kernel_rem_pio2+0x5ac>
 10025d0:	0029883a 	mov	r20,zero
 10025d4:	054ffc34 	movhi	r21,16368
 10025d8:	880f883a 	mov	r7,r17
 10025dc:	800d883a 	mov	r6,r16
 10025e0:	a009883a 	mov	r4,r20
 10025e4:	a80b883a 	mov	r5,r21
 10025e8:	1003dc80 	call	1003dc8 <__subdf3>
 10025ec:	1025883a 	mov	r18,r2
 10025f0:	b005003a 	cmpeq	r2,r22,zero
 10025f4:	1827883a 	mov	r19,r3
 10025f8:	9021883a 	mov	r16,r18
 10025fc:	1823883a 	mov	r17,r3
 1002600:	103f8a1e 	bne	r2,zero,100242c <__kernel_rem_pio2+0x44c>
 1002604:	d9809317 	ldw	r6,588(sp)
 1002608:	0009883a 	mov	r4,zero
 100260c:	a80b883a 	mov	r5,r21
 1002610:	10033b80 	call	10033b8 <scalbn>
 1002614:	180f883a 	mov	r7,r3
 1002618:	9009883a 	mov	r4,r18
 100261c:	980b883a 	mov	r5,r19
 1002620:	100d883a 	mov	r6,r2
 1002624:	1003dc80 	call	1003dc8 <__subdf3>
 1002628:	1021883a 	mov	r16,r2
 100262c:	1823883a 	mov	r17,r3
 1002630:	000d883a 	mov	r6,zero
 1002634:	000f883a 	mov	r7,zero
 1002638:	8009883a 	mov	r4,r16
 100263c:	880b883a 	mov	r5,r17
 1002640:	10042800 	call	1004280 <__eqdf2>
 1002644:	103f7f26 	beq	r2,zero,1002444 <__kernel_rem_pio2+0x464>
 1002648:	000d883a 	mov	r6,zero
 100264c:	000f883a 	mov	r7,zero
 1002650:	8009883a 	mov	r4,r16
 1002654:	880b883a 	mov	r5,r17
 1002658:	10042800 	call	1004280 <__eqdf2>
 100265c:	10019a1e 	bne	r2,zero,1002cc8 <__kernel_rem_pio2+0xce8>
 1002660:	da808d17 	ldw	r10,564(sp)
 1002664:	51bfffc4 	addi	r6,r10,-1
 1002668:	3185883a 	add	r2,r6,r6
 100266c:	1085883a 	add	r2,r2,r2
 1002670:	d9009317 	ldw	r4,588(sp)
 1002674:	16c5883a 	add	r2,r2,sp
 1002678:	10c00017 	ldw	r3,0(r2)
 100267c:	213ffa04 	addi	r4,r4,-24
 1002680:	d9009315 	stw	r4,588(sp)
 1002684:	1801d41e 	bne	r3,zero,1002dd8 <__kernel_rem_pio2+0xdf8>
 1002688:	d9808d15 	stw	r6,564(sp)
 100268c:	1007883a 	mov	r3,r2
 1002690:	d9408d17 	ldw	r5,564(sp)
 1002694:	d9809317 	ldw	r6,588(sp)
 1002698:	18ffff04 	addi	r3,r3,-4
 100269c:	18800017 	ldw	r2,0(r3)
 10026a0:	297fffc4 	addi	r5,r5,-1
 10026a4:	31bffa04 	addi	r6,r6,-24
 10026a8:	d9408d15 	stw	r5,564(sp)
 10026ac:	d9809315 	stw	r6,588(sp)
 10026b0:	103ff726 	beq	r2,zero,1002690 <__kernel_rem_pio2+0x6b0>
 10026b4:	d9809317 	ldw	r6,588(sp)
 10026b8:	0005883a 	mov	r2,zero
 10026bc:	00cffc34 	movhi	r3,16368
 10026c0:	180b883a 	mov	r5,r3
 10026c4:	1009883a 	mov	r4,r2
 10026c8:	10033b80 	call	10033b8 <scalbn>
 10026cc:	d9808d17 	ldw	r6,564(sp)
 10026d0:	1021883a 	mov	r16,r2
 10026d4:	1823883a 	mov	r17,r3
 10026d8:	30004616 	blt	r6,zero,10027f4 <__kernel_rem_pio2+0x814>
 10026dc:	300690fa 	slli	r3,r6,3
 10026e0:	3185883a 	add	r2,r6,r6
 10026e4:	1085883a 	add	r2,r2,r2
 10026e8:	16e9883a 	add	r20,r2,sp
 10026ec:	1ee5883a 	add	r18,r3,sp
 10026f0:	3027883a 	mov	r19,r6
 10026f4:	057fffc4 	movi	r21,-1
 10026f8:	a1000017 	ldw	r4,0(r20)
 10026fc:	9cffffc4 	addi	r19,r19,-1
 1002700:	a53fff04 	addi	r20,r20,-4
 1002704:	10044180 	call	1004418 <__floatsidf>
 1002708:	800d883a 	mov	r6,r16
 100270c:	880f883a 	mov	r7,r17
 1002710:	180b883a 	mov	r5,r3
 1002714:	1009883a 	mov	r4,r2
 1002718:	1003ebc0 	call	1003ebc <__muldf3>
 100271c:	0015883a 	mov	r10,zero
 1002720:	02cf9c34 	movhi	r11,15984
 1002724:	880b883a 	mov	r5,r17
 1002728:	8009883a 	mov	r4,r16
 100272c:	90c06515 	stw	r3,404(r18)
 1002730:	90806415 	stw	r2,400(r18)
 1002734:	580f883a 	mov	r7,r11
 1002738:	500d883a 	mov	r6,r10
 100273c:	1003ebc0 	call	1003ebc <__muldf3>
 1002740:	1021883a 	mov	r16,r2
 1002744:	1823883a 	mov	r17,r3
 1002748:	94bffe04 	addi	r18,r18,-8
 100274c:	9d7fea1e 	bne	r19,r21,10026f8 <__kernel_rem_pio2+0x718>
 1002750:	d9c09517 	ldw	r7,596(sp)
 1002754:	dd808d17 	ldw	r22,564(sp)
 1002758:	002b883a 	mov	r21,zero
 100275c:	382e403a 	cmpge	r23,r7,zero
 1002760:	b800aa26 	beq	r23,zero,1002a0c <__kernel_rem_pio2+0xa2c>
 1002764:	a800a916 	blt	r21,zero,1002a0c <__kernel_rem_pio2+0xa2c>
 1002768:	b00690fa 	slli	r3,r22,3
 100276c:	d8806404 	addi	r2,sp,400
 1002770:	0021883a 	mov	r16,zero
 1002774:	10e9883a 	add	r20,r2,r3
 1002778:	0027883a 	mov	r19,zero
 100277c:	0023883a 	mov	r17,zero
 1002780:	04804074 	movhi	r18,257
 1002784:	94899904 	addi	r18,r18,9828
 1002788:	00000106 	br	1002790 <__kernel_rem_pio2+0x7b0>
 100278c:	acc01116 	blt	r21,r19,10027d4 <__kernel_rem_pio2+0x7f4>
 1002790:	91000017 	ldw	r4,0(r18)
 1002794:	91400117 	ldw	r5,4(r18)
 1002798:	a1800017 	ldw	r6,0(r20)
 100279c:	a1c00117 	ldw	r7,4(r20)
 10027a0:	9cc00044 	addi	r19,r19,1
 10027a4:	94800204 	addi	r18,r18,8
 10027a8:	1003ebc0 	call	1003ebc <__muldf3>
 10027ac:	180f883a 	mov	r7,r3
 10027b0:	880b883a 	mov	r5,r17
 10027b4:	8009883a 	mov	r4,r16
 10027b8:	100d883a 	mov	r6,r2
 10027bc:	1003e480 	call	1003e48 <__adddf3>
 10027c0:	da809517 	ldw	r10,596(sp)
 10027c4:	a5000204 	addi	r20,r20,8
 10027c8:	1021883a 	mov	r16,r2
 10027cc:	1823883a 	mov	r17,r3
 10027d0:	54ffee0e 	bge	r10,r19,100278c <__kernel_rem_pio2+0x7ac>
 10027d4:	a80490fa 	slli	r2,r21,3
 10027d8:	b5bfffc4 	addi	r22,r22,-1
 10027dc:	ad400044 	addi	r21,r21,1
 10027e0:	16c5883a 	add	r2,r2,sp
 10027e4:	14403d15 	stw	r17,244(r2)
 10027e8:	14003c15 	stw	r16,240(r2)
 10027ec:	00bfffc4 	movi	r2,-1
 10027f0:	b0bfdb1e 	bne	r22,r2,1002760 <__kernel_rem_pio2+0x780>
 10027f4:	d8c0ad17 	ldw	r3,692(sp)
 10027f8:	00800084 	movi	r2,2
 10027fc:	10c09316 	blt	r2,r3,1002a4c <__kernel_rem_pio2+0xa6c>
 1002800:	00c1120e 	bge	zero,r3,1002c4c <__kernel_rem_pio2+0xc6c>
 1002804:	d9808d17 	ldw	r6,564(sp)
 1002808:	30018d16 	blt	r6,zero,1002e40 <__kernel_rem_pio2+0xe60>
 100280c:	d8c08d17 	ldw	r3,564(sp)
 1002810:	0011883a 	mov	r8,zero
 1002814:	0013883a 	mov	r9,zero
 1002818:	180490fa 	slli	r2,r3,3
 100281c:	1823883a 	mov	r17,r3
 1002820:	04bfffc4 	movi	r18,-1
 1002824:	16e1883a 	add	r16,r2,sp
 1002828:	80803c17 	ldw	r2,240(r16)
 100282c:	80c03d17 	ldw	r3,244(r16)
 1002830:	480b883a 	mov	r5,r9
 1002834:	4009883a 	mov	r4,r8
 1002838:	180f883a 	mov	r7,r3
 100283c:	100d883a 	mov	r6,r2
 1002840:	1003e480 	call	1003e48 <__adddf3>
 1002844:	8c7fffc4 	addi	r17,r17,-1
 1002848:	843ffe04 	addi	r16,r16,-8
 100284c:	1011883a 	mov	r8,r2
 1002850:	1813883a 	mov	r9,r3
 1002854:	8cbff41e 	bne	r17,r18,1002828 <__kernel_rem_pio2+0x848>
 1002858:	d9009217 	ldw	r4,584(sp)
 100285c:	20015b1e 	bne	r4,zero,1002dcc <__kernel_rem_pio2+0xdec>
 1002860:	4009883a 	mov	r4,r8
 1002864:	480b883a 	mov	r5,r9
 1002868:	d9809717 	ldw	r6,604(sp)
 100286c:	d8803c17 	ldw	r2,240(sp)
 1002870:	480f883a 	mov	r7,r9
 1002874:	31400115 	stw	r5,4(r6)
 1002878:	31000015 	stw	r4,0(r6)
 100287c:	d8c03d17 	ldw	r3,244(sp)
 1002880:	400d883a 	mov	r6,r8
 1002884:	1009883a 	mov	r4,r2
 1002888:	180b883a 	mov	r5,r3
 100288c:	1003dc80 	call	1003dc8 <__subdf3>
 1002890:	d9c08d17 	ldw	r7,564(sp)
 1002894:	1011883a 	mov	r8,r2
 1002898:	1813883a 	mov	r9,r3
 100289c:	01c00d0e 	bge	zero,r7,10028d4 <__kernel_rem_pio2+0x8f4>
 10028a0:	0023883a 	mov	r17,zero
 10028a4:	dc003e04 	addi	r16,sp,248
 10028a8:	81800017 	ldw	r6,0(r16)
 10028ac:	81c00117 	ldw	r7,4(r16)
 10028b0:	480b883a 	mov	r5,r9
 10028b4:	4009883a 	mov	r4,r8
 10028b8:	1003e480 	call	1003e48 <__adddf3>
 10028bc:	da808d17 	ldw	r10,564(sp)
 10028c0:	8c400044 	addi	r17,r17,1
 10028c4:	1011883a 	mov	r8,r2
 10028c8:	1813883a 	mov	r9,r3
 10028cc:	84000204 	addi	r16,r16,8
 10028d0:	8abff51e 	bne	r17,r10,10028a8 <__kernel_rem_pio2+0x8c8>
 10028d4:	d8809217 	ldw	r2,584(sp)
 10028d8:	10000226 	beq	r2,zero,10028e4 <__kernel_rem_pio2+0x904>
 10028dc:	48e0003c 	xorhi	r3,r9,32768
 10028e0:	1813883a 	mov	r9,r3
 10028e4:	d8c09717 	ldw	r3,604(sp)
 10028e8:	1a400315 	stw	r9,12(r3)
 10028ec:	1a000215 	stw	r8,8(r3)
 10028f0:	d8c09417 	ldw	r3,592(sp)
 10028f4:	188001cc 	andi	r2,r3,7
 10028f8:	dfc0ac17 	ldw	ra,688(sp)
 10028fc:	df00ab17 	ldw	fp,684(sp)
 1002900:	ddc0aa17 	ldw	r23,680(sp)
 1002904:	dd80a917 	ldw	r22,676(sp)
 1002908:	dd40a817 	ldw	r21,672(sp)
 100290c:	dd00a717 	ldw	r20,668(sp)
 1002910:	dcc0a617 	ldw	r19,664(sp)
 1002914:	dc80a517 	ldw	r18,660(sp)
 1002918:	dc40a417 	ldw	r17,656(sp)
 100291c:	dc00a317 	ldw	r16,652(sp)
 1002920:	dec0ad04 	addi	sp,sp,692
 1002924:	f800283a 	ret
 1002928:	d8809317 	ldw	r2,588(sp)
 100292c:	10001f1e 	bne	r2,zero,10029ac <__kernel_rem_pio2+0x9cc>
 1002930:	d8c08d17 	ldw	r3,564(sp)
 1002934:	18c5883a 	add	r2,r3,r3
 1002938:	1085883a 	add	r2,r2,r2
 100293c:	16c5883a 	add	r2,r2,sp
 1002940:	10ffff17 	ldw	r3,-4(r2)
 1002944:	1807d5fa 	srai	r3,r3,23
 1002948:	d8c09215 	stw	r3,584(sp)
 100294c:	003e8e06 	br	1002388 <__kernel_rem_pio2+0x3a8>
 1002950:	d9008d17 	ldw	r4,564(sp)
 1002954:	d9409317 	ldw	r5,588(sp)
 1002958:	2145c83a 	sub	r2,r4,r5
 100295c:	1085883a 	add	r2,r2,r2
 1002960:	1085883a 	add	r2,r2,r2
 1002964:	16c5883a 	add	r2,r2,sp
 1002968:	10c00017 	ldw	r3,0(r2)
 100296c:	01002034 	movhi	r4,128
 1002970:	213fffc4 	addi	r4,r4,-1
 1002974:	1906703a 	and	r3,r3,r4
 1002978:	10c00015 	stw	r3,0(r2)
 100297c:	003ea806 	br	1002420 <__kernel_rem_pio2+0x440>
 1002980:	d9808d17 	ldw	r6,564(sp)
 1002984:	01001034 	movhi	r4,64
 1002988:	213fffc4 	addi	r4,r4,-1
 100298c:	30bfffc4 	addi	r2,r6,-1
 1002990:	1085883a 	add	r2,r2,r2
 1002994:	1085883a 	add	r2,r2,r2
 1002998:	16c5883a 	add	r2,r2,sp
 100299c:	10c00017 	ldw	r3,0(r2)
 10029a0:	1906703a 	and	r3,r3,r4
 10029a4:	10c00015 	stw	r3,0(r2)
 10029a8:	003e9d06 	br	1002420 <__kernel_rem_pio2+0x440>
 10029ac:	0005883a 	mov	r2,zero
 10029b0:	00cff834 	movhi	r3,16352
 10029b4:	300b883a 	mov	r5,r6
 10029b8:	180f883a 	mov	r7,r3
 10029bc:	8009883a 	mov	r4,r16
 10029c0:	100d883a 	mov	r6,r2
 10029c4:	10043900 	call	1004390 <__gedf2>
 10029c8:	10001d0e 	bge	r2,zero,1002a40 <__kernel_rem_pio2+0xa60>
 10029cc:	d8009215 	stw	zero,584(sp)
 10029d0:	003e9606 	br	100242c <__kernel_rem_pio2+0x44c>
 10029d4:	d8c08d17 	ldw	r3,564(sp)
 10029d8:	01000044 	movi	r4,1
 10029dc:	192f883a 	add	r23,r3,r4
 10029e0:	1f000044 	addi	fp,r3,1
 10029e4:	bf3eb516 	blt	r23,fp,10024bc <__kernel_rem_pio2+0x4dc>
 10029e8:	003eb606 	br	10024c4 <__kernel_rem_pio2+0x4e4>
 10029ec:	0021883a 	mov	r16,zero
 10029f0:	0023883a 	mov	r17,zero
 10029f4:	a5000044 	addi	r20,r20,1
 10029f8:	ac400115 	stw	r17,4(r21)
 10029fc:	ac000015 	stw	r16,0(r21)
 1002a00:	ad400204 	addi	r21,r21,8
 1002a04:	a5fdba1e 	bne	r20,r23,10020f0 <__kernel_rem_pio2+0x110>
 1002a08:	003dd806 	br	100216c <__kernel_rem_pio2+0x18c>
 1002a0c:	a80490fa 	slli	r2,r21,3
 1002a10:	0021883a 	mov	r16,zero
 1002a14:	0023883a 	mov	r17,zero
 1002a18:	16c5883a 	add	r2,r2,sp
 1002a1c:	14403d15 	stw	r17,244(r2)
 1002a20:	14003c15 	stw	r16,240(r2)
 1002a24:	b5bfffc4 	addi	r22,r22,-1
 1002a28:	00bfffc4 	movi	r2,-1
 1002a2c:	ad400044 	addi	r21,r21,1
 1002a30:	b0bf4b1e 	bne	r22,r2,1002760 <__kernel_rem_pio2+0x780>
 1002a34:	003f6f06 	br	10027f4 <__kernel_rem_pio2+0x814>
 1002a38:	002d883a 	mov	r22,zero
 1002a3c:	003e7106 	br	1002404 <__kernel_rem_pio2+0x424>
 1002a40:	01000084 	movi	r4,2
 1002a44:	d9009215 	stw	r4,584(sp)
 1002a48:	003e5106 	br	1002390 <__kernel_rem_pio2+0x3b0>
 1002a4c:	d900ad17 	ldw	r4,692(sp)
 1002a50:	008000c4 	movi	r2,3
 1002a54:	20bfa61e 	bne	r4,r2,10028f0 <__kernel_rem_pio2+0x910>
 1002a58:	d9c08d17 	ldw	r7,564(sp)
 1002a5c:	01c02c0e 	bge	zero,r7,1002b10 <__kernel_rem_pio2+0xb30>
 1002a60:	3805883a 	mov	r2,r7
 1002a64:	00000106 	br	1002a6c <__kernel_rem_pio2+0xa8c>
 1002a68:	d8808e17 	ldw	r2,568(sp)
 1002a6c:	113fffc4 	addi	r4,r2,-1
 1002a70:	100690fa 	slli	r3,r2,3
 1002a74:	200490fa 	slli	r2,r4,3
 1002a78:	d9008e15 	stw	r4,568(sp)
 1002a7c:	1ef9883a 	add	fp,r3,sp
 1002a80:	16c5883a 	add	r2,r2,sp
 1002a84:	d8809a15 	stw	r2,616(sp)
 1002a88:	11403c04 	addi	r5,r2,240
 1002a8c:	e1803c04 	addi	r6,fp,240
 1002a90:	14003c17 	ldw	r16,240(r2)
 1002a94:	e5003c17 	ldw	r20,240(fp)
 1002a98:	d9409b15 	stw	r5,620(sp)
 1002a9c:	d9809c15 	stw	r6,624(sp)
 1002aa0:	35400117 	ldw	r21,4(r6)
 1002aa4:	2c400117 	ldw	r17,4(r5)
 1002aa8:	8009883a 	mov	r4,r16
 1002aac:	a00d883a 	mov	r6,r20
 1002ab0:	880b883a 	mov	r5,r17
 1002ab4:	a80f883a 	mov	r7,r21
 1002ab8:	1003e480 	call	1003e48 <__adddf3>
 1002abc:	100d883a 	mov	r6,r2
 1002ac0:	880b883a 	mov	r5,r17
 1002ac4:	8009883a 	mov	r4,r16
 1002ac8:	180f883a 	mov	r7,r3
 1002acc:	1025883a 	mov	r18,r2
 1002ad0:	1827883a 	mov	r19,r3
 1002ad4:	1003dc80 	call	1003dc8 <__subdf3>
 1002ad8:	180f883a 	mov	r7,r3
 1002adc:	a80b883a 	mov	r5,r21
 1002ae0:	a009883a 	mov	r4,r20
 1002ae4:	100d883a 	mov	r6,r2
 1002ae8:	1003e480 	call	1003e48 <__adddf3>
 1002aec:	e0803c15 	stw	r2,240(fp)
 1002af0:	d9c09c17 	ldw	r7,624(sp)
 1002af4:	38c00115 	stw	r3,4(r7)
 1002af8:	da809a17 	ldw	r10,616(sp)
 1002afc:	54803c15 	stw	r18,240(r10)
 1002b00:	d8809b17 	ldw	r2,620(sp)
 1002b04:	14c00115 	stw	r19,4(r2)
 1002b08:	d8c08e17 	ldw	r3,568(sp)
 1002b0c:	183fd61e 	bne	r3,zero,1002a68 <__kernel_rem_pio2+0xa88>
 1002b10:	d9008d17 	ldw	r4,564(sp)
 1002b14:	00800044 	movi	r2,1
 1002b18:	1100cc0e 	bge	r2,r4,1002e4c <__kernel_rem_pio2+0xe6c>
 1002b1c:	d8808d17 	ldw	r2,564(sp)
 1002b20:	117fffc4 	addi	r5,r2,-1
 1002b24:	100690fa 	slli	r3,r2,3
 1002b28:	280490fa 	slli	r2,r5,3
 1002b2c:	d9408f15 	stw	r5,572(sp)
 1002b30:	1ef9883a 	add	fp,r3,sp
 1002b34:	16c5883a 	add	r2,r2,sp
 1002b38:	d8809d15 	stw	r2,628(sp)
 1002b3c:	11803c04 	addi	r6,r2,240
 1002b40:	e1c03c04 	addi	r7,fp,240
 1002b44:	14003c17 	ldw	r16,240(r2)
 1002b48:	e5003c17 	ldw	r20,240(fp)
 1002b4c:	d9809e15 	stw	r6,632(sp)
 1002b50:	d9c09f15 	stw	r7,636(sp)
 1002b54:	34400117 	ldw	r17,4(r6)
 1002b58:	3d400117 	ldw	r21,4(r7)
 1002b5c:	8009883a 	mov	r4,r16
 1002b60:	880b883a 	mov	r5,r17
 1002b64:	a00d883a 	mov	r6,r20
 1002b68:	a80f883a 	mov	r7,r21
 1002b6c:	1003e480 	call	1003e48 <__adddf3>
 1002b70:	100d883a 	mov	r6,r2
 1002b74:	880b883a 	mov	r5,r17
 1002b78:	8009883a 	mov	r4,r16
 1002b7c:	180f883a 	mov	r7,r3
 1002b80:	1025883a 	mov	r18,r2
 1002b84:	1827883a 	mov	r19,r3
 1002b88:	1003dc80 	call	1003dc8 <__subdf3>
 1002b8c:	180f883a 	mov	r7,r3
 1002b90:	a80b883a 	mov	r5,r21
 1002b94:	a009883a 	mov	r4,r20
 1002b98:	100d883a 	mov	r6,r2
 1002b9c:	1003e480 	call	1003e48 <__adddf3>
 1002ba0:	e0803c15 	stw	r2,240(fp)
 1002ba4:	da809f17 	ldw	r10,636(sp)
 1002ba8:	50c00115 	stw	r3,4(r10)
 1002bac:	d8c09d17 	ldw	r3,628(sp)
 1002bb0:	d8808f17 	ldw	r2,572(sp)
 1002bb4:	1c803c15 	stw	r18,240(r3)
 1002bb8:	d9009e17 	ldw	r4,632(sp)
 1002bbc:	00c00044 	movi	r3,1
 1002bc0:	24c00115 	stw	r19,4(r4)
 1002bc4:	d9408f17 	ldw	r5,572(sp)
 1002bc8:	28ffd51e 	bne	r5,r3,1002b20 <__kernel_rem_pio2+0xb40>
 1002bcc:	dc008d17 	ldw	r16,564(sp)
 1002bd0:	0011883a 	mov	r8,zero
 1002bd4:	1825883a 	mov	r18,r3
 1002bd8:	800490fa 	slli	r2,r16,3
 1002bdc:	0013883a 	mov	r9,zero
 1002be0:	16e3883a 	add	r17,r2,sp
 1002be4:	88803c17 	ldw	r2,240(r17)
 1002be8:	88c03d17 	ldw	r3,244(r17)
 1002bec:	480b883a 	mov	r5,r9
 1002bf0:	4009883a 	mov	r4,r8
 1002bf4:	180f883a 	mov	r7,r3
 1002bf8:	100d883a 	mov	r6,r2
 1002bfc:	1003e480 	call	1003e48 <__adddf3>
 1002c00:	843fffc4 	addi	r16,r16,-1
 1002c04:	8c7ffe04 	addi	r17,r17,-8
 1002c08:	1011883a 	mov	r8,r2
 1002c0c:	1813883a 	mov	r9,r3
 1002c10:	84bff41e 	bne	r16,r18,1002be4 <__kernel_rem_pio2+0xc04>
 1002c14:	d9809217 	ldw	r6,584(sp)
 1002c18:	30007a1e 	bne	r6,zero,1002e04 <__kernel_rem_pio2+0xe24>
 1002c1c:	d9c09717 	ldw	r7,604(sp)
 1002c20:	d8803c17 	ldw	r2,240(sp)
 1002c24:	d9003e17 	ldw	r4,248(sp)
 1002c28:	3a400515 	stw	r9,20(r7)
 1002c2c:	d8c03d17 	ldw	r3,244(sp)
 1002c30:	d9403f17 	ldw	r5,252(sp)
 1002c34:	3a000415 	stw	r8,16(r7)
 1002c38:	38c00115 	stw	r3,4(r7)
 1002c3c:	39400315 	stw	r5,12(r7)
 1002c40:	38800015 	stw	r2,0(r7)
 1002c44:	39000215 	stw	r4,8(r7)
 1002c48:	003f2906 	br	10028f0 <__kernel_rem_pio2+0x910>
 1002c4c:	183f281e 	bne	r3,zero,10028f0 <__kernel_rem_pio2+0x910>
 1002c50:	d9408d17 	ldw	r5,564(sp)
 1002c54:	28008016 	blt	r5,zero,1002e58 <__kernel_rem_pio2+0xe78>
 1002c58:	dc008d17 	ldw	r16,564(sp)
 1002c5c:	000d883a 	mov	r6,zero
 1002c60:	000f883a 	mov	r7,zero
 1002c64:	800490fa 	slli	r2,r16,3
 1002c68:	04bfffc4 	movi	r18,-1
 1002c6c:	16e3883a 	add	r17,r2,sp
 1002c70:	88803c17 	ldw	r2,240(r17)
 1002c74:	88c03d17 	ldw	r3,244(r17)
 1002c78:	380b883a 	mov	r5,r7
 1002c7c:	3009883a 	mov	r4,r6
 1002c80:	180f883a 	mov	r7,r3
 1002c84:	100d883a 	mov	r6,r2
 1002c88:	1003e480 	call	1003e48 <__adddf3>
 1002c8c:	843fffc4 	addi	r16,r16,-1
 1002c90:	8c7ffe04 	addi	r17,r17,-8
 1002c94:	100d883a 	mov	r6,r2
 1002c98:	180f883a 	mov	r7,r3
 1002c9c:	84bff41e 	bne	r16,r18,1002c70 <__kernel_rem_pio2+0xc90>
 1002ca0:	da809217 	ldw	r10,584(sp)
 1002ca4:	50000226 	beq	r10,zero,1002cb0 <__kernel_rem_pio2+0xcd0>
 1002ca8:	38e0003c 	xorhi	r3,r7,32768
 1002cac:	180f883a 	mov	r7,r3
 1002cb0:	d8809717 	ldw	r2,604(sp)
 1002cb4:	11c00115 	stw	r7,4(r2)
 1002cb8:	11800015 	stw	r6,0(r2)
 1002cbc:	003f0c06 	br	10028f0 <__kernel_rem_pio2+0x910>
 1002cc0:	d8008c15 	stw	zero,560(sp)
 1002cc4:	003ce406 	br	1002058 <__kernel_rem_pio2+0x78>
 1002cc8:	d9c09317 	ldw	r7,588(sp)
 1002ccc:	880b883a 	mov	r5,r17
 1002cd0:	8009883a 	mov	r4,r16
 1002cd4:	01cdc83a 	sub	r6,zero,r7
 1002cd8:	10033b80 	call	10033b8 <scalbn>
 1002cdc:	0011883a 	mov	r8,zero
 1002ce0:	02505c34 	movhi	r9,16752
 1002ce4:	480f883a 	mov	r7,r9
 1002ce8:	1009883a 	mov	r4,r2
 1002cec:	180b883a 	mov	r5,r3
 1002cf0:	400d883a 	mov	r6,r8
 1002cf4:	102d883a 	mov	r22,r2
 1002cf8:	182f883a 	mov	r23,r3
 1002cfc:	10043900 	call	1004390 <__gedf2>
 1002d00:	10003716 	blt	r2,zero,1002de0 <__kernel_rem_pio2+0xe00>
 1002d04:	0005883a 	mov	r2,zero
 1002d08:	00cf9c34 	movhi	r3,15984
 1002d0c:	180f883a 	mov	r7,r3
 1002d10:	100d883a 	mov	r6,r2
 1002d14:	b009883a 	mov	r4,r22
 1002d18:	b80b883a 	mov	r5,r23
 1002d1c:	1003ebc0 	call	1003ebc <__muldf3>
 1002d20:	180b883a 	mov	r5,r3
 1002d24:	1009883a 	mov	r4,r2
 1002d28:	10045100 	call	1004510 <__fixdfsi>
 1002d2c:	1009883a 	mov	r4,r2
 1002d30:	10044180 	call	1004418 <__floatsidf>
 1002d34:	da808d17 	ldw	r10,564(sp)
 1002d38:	1023883a 	mov	r17,r2
 1002d3c:	1825883a 	mov	r18,r3
 1002d40:	0005883a 	mov	r2,zero
 1002d44:	00f05c34 	movhi	r3,49520
 1002d48:	180f883a 	mov	r7,r3
 1002d4c:	8809883a 	mov	r4,r17
 1002d50:	900b883a 	mov	r5,r18
 1002d54:	100d883a 	mov	r6,r2
 1002d58:	52ab883a 	add	r21,r10,r10
 1002d5c:	1003ebc0 	call	1003ebc <__muldf3>
 1002d60:	180f883a 	mov	r7,r3
 1002d64:	b80b883a 	mov	r5,r23
 1002d68:	100d883a 	mov	r6,r2
 1002d6c:	b009883a 	mov	r4,r22
 1002d70:	1003e480 	call	1003e48 <__adddf3>
 1002d74:	100d883a 	mov	r6,r2
 1002d78:	d8808d17 	ldw	r2,564(sp)
 1002d7c:	180b883a 	mov	r5,r3
 1002d80:	3009883a 	mov	r4,r6
 1002d84:	10800044 	addi	r2,r2,1
 1002d88:	ad6b883a 	add	r21,r21,r21
 1002d8c:	d8808d15 	stw	r2,564(sp)
 1002d90:	10045100 	call	1004510 <__fixdfsi>
 1002d94:	d8c08d17 	ldw	r3,564(sp)
 1002d98:	aeeb883a 	add	r21,r21,sp
 1002d9c:	8809883a 	mov	r4,r17
 1002da0:	900b883a 	mov	r5,r18
 1002da4:	a8800015 	stw	r2,0(r21)
 1002da8:	18e1883a 	add	r16,r3,r3
 1002dac:	10045100 	call	1004510 <__fixdfsi>
 1002db0:	d9009317 	ldw	r4,588(sp)
 1002db4:	8421883a 	add	r16,r16,r16
 1002db8:	86e1883a 	add	r16,r16,sp
 1002dbc:	21000604 	addi	r4,r4,24
 1002dc0:	d9009315 	stw	r4,588(sp)
 1002dc4:	80800015 	stw	r2,0(r16)
 1002dc8:	003e3a06 	br	10026b4 <__kernel_rem_pio2+0x6d4>
 1002dcc:	4009883a 	mov	r4,r8
 1002dd0:	4960003c 	xorhi	r5,r9,32768
 1002dd4:	003ea406 	br	1002868 <__kernel_rem_pio2+0x888>
 1002dd8:	d9808d15 	stw	r6,564(sp)
 1002ddc:	003e3506 	br	10026b4 <__kernel_rem_pio2+0x6d4>
 1002de0:	d9408d17 	ldw	r5,564(sp)
 1002de4:	b009883a 	mov	r4,r22
 1002de8:	2961883a 	add	r16,r5,r5
 1002dec:	8421883a 	add	r16,r16,r16
 1002df0:	b80b883a 	mov	r5,r23
 1002df4:	86e1883a 	add	r16,r16,sp
 1002df8:	10045100 	call	1004510 <__fixdfsi>
 1002dfc:	80800015 	stw	r2,0(r16)
 1002e00:	003e2c06 	br	10026b4 <__kernel_rem_pio2+0x6d4>
 1002e04:	d8c03d17 	ldw	r3,244(sp)
 1002e08:	d9403f17 	ldw	r5,252(sp)
 1002e0c:	da809717 	ldw	r10,604(sp)
 1002e10:	d8803c17 	ldw	r2,240(sp)
 1002e14:	d9003e17 	ldw	r4,248(sp)
 1002e18:	49e0003c 	xorhi	r7,r9,32768
 1002e1c:	51c00515 	stw	r7,20(r10)
 1002e20:	19a0003c 	xorhi	r6,r3,32768
 1002e24:	29e0003c 	xorhi	r7,r5,32768
 1002e28:	51800115 	stw	r6,4(r10)
 1002e2c:	51c00315 	stw	r7,12(r10)
 1002e30:	50800015 	stw	r2,0(r10)
 1002e34:	51000215 	stw	r4,8(r10)
 1002e38:	52000415 	stw	r8,16(r10)
 1002e3c:	003eac06 	br	10028f0 <__kernel_rem_pio2+0x910>
 1002e40:	0011883a 	mov	r8,zero
 1002e44:	0013883a 	mov	r9,zero
 1002e48:	003e8306 	br	1002858 <__kernel_rem_pio2+0x878>
 1002e4c:	0011883a 	mov	r8,zero
 1002e50:	0013883a 	mov	r9,zero
 1002e54:	003f6f06 	br	1002c14 <__kernel_rem_pio2+0xc34>
 1002e58:	000d883a 	mov	r6,zero
 1002e5c:	000f883a 	mov	r7,zero
 1002e60:	003f8f06 	br	1002ca0 <__kernel_rem_pio2+0xcc0>

01002e64 <__kernel_sin>:
 1002e64:	00a00034 	movhi	r2,32768
 1002e68:	10bfffc4 	addi	r2,r2,-1
 1002e6c:	deffef04 	addi	sp,sp,-68
 1002e70:	1144703a 	and	r2,r2,r5
 1002e74:	00cf9034 	movhi	r3,15936
 1002e78:	18ffffc4 	addi	r3,r3,-1
 1002e7c:	dd400d15 	stw	r21,52(sp)
 1002e80:	dd000c15 	stw	r20,48(sp)
 1002e84:	dfc01015 	stw	ra,64(sp)
 1002e88:	ddc00f15 	stw	r23,60(sp)
 1002e8c:	dd800e15 	stw	r22,56(sp)
 1002e90:	dcc00b15 	stw	r19,44(sp)
 1002e94:	dc800a15 	stw	r18,40(sp)
 1002e98:	dc400915 	stw	r17,36(sp)
 1002e9c:	dc000815 	stw	r16,32(sp)
 1002ea0:	2029883a 	mov	r20,r4
 1002ea4:	282b883a 	mov	r21,r5
 1002ea8:	d9800415 	stw	r6,16(sp)
 1002eac:	d9c00515 	stw	r7,20(sp)
 1002eb0:	18800216 	blt	r3,r2,1002ebc <__kernel_sin+0x58>
 1002eb4:	10045100 	call	1004510 <__fixdfsi>
 1002eb8:	10008826 	beq	r2,zero,10030dc <__kernel_sin+0x278>
 1002ebc:	a009883a 	mov	r4,r20
 1002ec0:	a80b883a 	mov	r5,r21
 1002ec4:	a00d883a 	mov	r6,r20
 1002ec8:	a80f883a 	mov	r7,r21
 1002ecc:	1003ebc0 	call	1003ebc <__muldf3>
 1002ed0:	102d883a 	mov	r22,r2
 1002ed4:	a009883a 	mov	r4,r20
 1002ed8:	a80b883a 	mov	r5,r21
 1002edc:	b00d883a 	mov	r6,r22
 1002ee0:	180f883a 	mov	r7,r3
 1002ee4:	182f883a 	mov	r23,r3
 1002ee8:	d8800215 	stw	r2,8(sp)
 1002eec:	d8c00315 	stw	r3,12(sp)
 1002ef0:	1003ebc0 	call	1003ebc <__muldf3>
 1002ef4:	d9000217 	ldw	r4,8(sp)
 1002ef8:	0216b434 	movhi	r8,23248
 1002efc:	42355f04 	addi	r8,r8,-10884
 1002f00:	024f79b4 	movhi	r9,15846
 1002f04:	4a764e84 	addi	r9,r9,-9926
 1002f08:	480f883a 	mov	r7,r9
 1002f0c:	400d883a 	mov	r6,r8
 1002f10:	b80b883a 	mov	r5,r23
 1002f14:	d8800615 	stw	r2,24(sp)
 1002f18:	d8c00715 	stw	r3,28(sp)
 1002f1c:	1003ebc0 	call	1003ebc <__muldf3>
 1002f20:	02228b34 	movhi	r8,35372
 1002f24:	42273ac4 	addi	r8,r8,-25365
 1002f28:	024f96f4 	movhi	r9,15963
 1002f2c:	4a797984 	addi	r9,r9,-6682
 1002f30:	480f883a 	mov	r7,r9
 1002f34:	400d883a 	mov	r6,r8
 1002f38:	180b883a 	mov	r5,r3
 1002f3c:	1009883a 	mov	r4,r2
 1002f40:	1003dc80 	call	1003dc8 <__subdf3>
 1002f44:	d9000217 	ldw	r4,8(sp)
 1002f48:	180f883a 	mov	r7,r3
 1002f4c:	b80b883a 	mov	r5,r23
 1002f50:	100d883a 	mov	r6,r2
 1002f54:	1003ebc0 	call	1003ebc <__muldf3>
 1002f58:	0215ecb4 	movhi	r8,22450
 1002f5c:	423f9f44 	addi	r8,r8,-387
 1002f60:	024fb1f4 	movhi	r9,16071
 1002f64:	4a4778c4 	addi	r9,r9,7651
 1002f68:	480f883a 	mov	r7,r9
 1002f6c:	400d883a 	mov	r6,r8
 1002f70:	180b883a 	mov	r5,r3
 1002f74:	1009883a 	mov	r4,r2
 1002f78:	1003e480 	call	1003e48 <__adddf3>
 1002f7c:	d9000217 	ldw	r4,8(sp)
 1002f80:	180f883a 	mov	r7,r3
 1002f84:	b80b883a 	mov	r5,r23
 1002f88:	100d883a 	mov	r6,r2
 1002f8c:	1003ebc0 	call	1003ebc <__muldf3>
 1002f90:	02067074 	movhi	r8,6593
 1002f94:	42187544 	addi	r8,r8,25045
 1002f98:	024fcab4 	movhi	r9,16170
 1002f9c:	4a406804 	addi	r9,r9,416
 1002fa0:	480f883a 	mov	r7,r9
 1002fa4:	400d883a 	mov	r6,r8
 1002fa8:	180b883a 	mov	r5,r3
 1002fac:	1009883a 	mov	r4,r2
 1002fb0:	1003dc80 	call	1003dc8 <__subdf3>
 1002fb4:	d9000217 	ldw	r4,8(sp)
 1002fb8:	180f883a 	mov	r7,r3
 1002fbc:	b80b883a 	mov	r5,r23
 1002fc0:	100d883a 	mov	r6,r2
 1002fc4:	1003ebc0 	call	1003ebc <__muldf3>
 1002fc8:	02044474 	movhi	r8,4369
 1002fcc:	423e2984 	addi	r8,r8,-1882
 1002fd0:	024fe074 	movhi	r9,16257
 1002fd4:	4a444444 	addi	r9,r9,4369
 1002fd8:	180b883a 	mov	r5,r3
 1002fdc:	480f883a 	mov	r7,r9
 1002fe0:	1009883a 	mov	r4,r2
 1002fe4:	400d883a 	mov	r6,r8
 1002fe8:	1003e480 	call	1003e48 <__adddf3>
 1002fec:	1021883a 	mov	r16,r2
 1002ff0:	d8800617 	ldw	r2,24(sp)
 1002ff4:	1823883a 	mov	r17,r3
 1002ff8:	d8800015 	stw	r2,0(sp)
 1002ffc:	d8800717 	ldw	r2,28(sp)
 1003000:	d8800115 	stw	r2,4(sp)
 1003004:	d8801117 	ldw	r2,68(sp)
 1003008:	10004126 	beq	r2,zero,1003110 <__kernel_sin+0x2ac>
 100300c:	d9000417 	ldw	r4,16(sp)
 1003010:	d9400517 	ldw	r5,20(sp)
 1003014:	0005883a 	mov	r2,zero
 1003018:	00cff834 	movhi	r3,16352
 100301c:	180f883a 	mov	r7,r3
 1003020:	100d883a 	mov	r6,r2
 1003024:	1003ebc0 	call	1003ebc <__muldf3>
 1003028:	d9000017 	ldw	r4,0(sp)
 100302c:	d9400717 	ldw	r5,28(sp)
 1003030:	800d883a 	mov	r6,r16
 1003034:	880f883a 	mov	r7,r17
 1003038:	1021883a 	mov	r16,r2
 100303c:	1823883a 	mov	r17,r3
 1003040:	1003ebc0 	call	1003ebc <__muldf3>
 1003044:	180f883a 	mov	r7,r3
 1003048:	880b883a 	mov	r5,r17
 100304c:	8009883a 	mov	r4,r16
 1003050:	100d883a 	mov	r6,r2
 1003054:	1003dc80 	call	1003dc8 <__subdf3>
 1003058:	d9000217 	ldw	r4,8(sp)
 100305c:	b80b883a 	mov	r5,r23
 1003060:	180f883a 	mov	r7,r3
 1003064:	100d883a 	mov	r6,r2
 1003068:	1003ebc0 	call	1003ebc <__muldf3>
 100306c:	d9c00517 	ldw	r7,20(sp)
 1003070:	d9800417 	ldw	r6,16(sp)
 1003074:	180b883a 	mov	r5,r3
 1003078:	1009883a 	mov	r4,r2
 100307c:	1003dc80 	call	1003dc8 <__subdf3>
 1003080:	d9000017 	ldw	r4,0(sp)
 1003084:	d9400717 	ldw	r5,28(sp)
 1003088:	02155574 	movhi	r8,21845
 100308c:	42155244 	addi	r8,r8,21833
 1003090:	024ff174 	movhi	r9,16325
 1003094:	4a555544 	addi	r9,r9,21845
 1003098:	480f883a 	mov	r7,r9
 100309c:	400d883a 	mov	r6,r8
 10030a0:	1021883a 	mov	r16,r2
 10030a4:	1823883a 	mov	r17,r3
 10030a8:	1003ebc0 	call	1003ebc <__muldf3>
 10030ac:	180f883a 	mov	r7,r3
 10030b0:	880b883a 	mov	r5,r17
 10030b4:	8009883a 	mov	r4,r16
 10030b8:	100d883a 	mov	r6,r2
 10030bc:	1003e480 	call	1003e48 <__adddf3>
 10030c0:	180f883a 	mov	r7,r3
 10030c4:	a80b883a 	mov	r5,r21
 10030c8:	a009883a 	mov	r4,r20
 10030cc:	100d883a 	mov	r6,r2
 10030d0:	1003dc80 	call	1003dc8 <__subdf3>
 10030d4:	1029883a 	mov	r20,r2
 10030d8:	182b883a 	mov	r21,r3
 10030dc:	a005883a 	mov	r2,r20
 10030e0:	a807883a 	mov	r3,r21
 10030e4:	dfc01017 	ldw	ra,64(sp)
 10030e8:	ddc00f17 	ldw	r23,60(sp)
 10030ec:	dd800e17 	ldw	r22,56(sp)
 10030f0:	dd400d17 	ldw	r21,52(sp)
 10030f4:	dd000c17 	ldw	r20,48(sp)
 10030f8:	dcc00b17 	ldw	r19,44(sp)
 10030fc:	dc800a17 	ldw	r18,40(sp)
 1003100:	dc400917 	ldw	r17,36(sp)
 1003104:	dc000817 	ldw	r16,32(sp)
 1003108:	dec01104 	addi	sp,sp,68
 100310c:	f800283a 	ret
 1003110:	d9000217 	ldw	r4,8(sp)
 1003114:	b80b883a 	mov	r5,r23
 1003118:	800d883a 	mov	r6,r16
 100311c:	180f883a 	mov	r7,r3
 1003120:	1003ebc0 	call	1003ebc <__muldf3>
 1003124:	02155574 	movhi	r8,21845
 1003128:	42155244 	addi	r8,r8,21833
 100312c:	024ff174 	movhi	r9,16325
 1003130:	4a555544 	addi	r9,r9,21845
 1003134:	480f883a 	mov	r7,r9
 1003138:	400d883a 	mov	r6,r8
 100313c:	180b883a 	mov	r5,r3
 1003140:	1009883a 	mov	r4,r2
 1003144:	1003dc80 	call	1003dc8 <__subdf3>
 1003148:	d9000017 	ldw	r4,0(sp)
 100314c:	d9400717 	ldw	r5,28(sp)
 1003150:	180f883a 	mov	r7,r3
 1003154:	100d883a 	mov	r6,r2
 1003158:	1003ebc0 	call	1003ebc <__muldf3>
 100315c:	180f883a 	mov	r7,r3
 1003160:	a80b883a 	mov	r5,r21
 1003164:	a009883a 	mov	r4,r20
 1003168:	100d883a 	mov	r6,r2
 100316c:	1003e480 	call	1003e48 <__adddf3>
 1003170:	1029883a 	mov	r20,r2
 1003174:	182b883a 	mov	r21,r3
 1003178:	003fd806 	br	10030dc <__kernel_sin+0x278>

0100317c <fabs>:
 100317c:	01e00034 	movhi	r7,32768
 1003180:	39ffffc4 	addi	r7,r7,-1
 1003184:	394e703a 	and	r7,r7,r5
 1003188:	2005883a 	mov	r2,r4
 100318c:	3807883a 	mov	r3,r7
 1003190:	f800283a 	ret

01003194 <floor>:
 1003194:	2805d53a 	srai	r2,r5,20
 1003198:	defff604 	addi	sp,sp,-40
 100319c:	dd800615 	stw	r22,24(sp)
 10031a0:	10c1ffcc 	andi	r3,r2,2047
 10031a4:	1dbf0044 	addi	r22,r3,-1023
 10031a8:	008004c4 	movi	r2,19
 10031ac:	ddc00715 	stw	r23,28(sp)
 10031b0:	dc800215 	stw	r18,8(sp)
 10031b4:	dc400115 	stw	r17,4(sp)
 10031b8:	dc000015 	stw	r16,0(sp)
 10031bc:	dfc00915 	stw	ra,36(sp)
 10031c0:	df000815 	stw	fp,32(sp)
 10031c4:	dd400515 	stw	r21,20(sp)
 10031c8:	dd000415 	stw	r20,16(sp)
 10031cc:	dcc00315 	stw	r19,12(sp)
 10031d0:	2021883a 	mov	r16,r4
 10031d4:	2823883a 	mov	r17,r5
 10031d8:	282f883a 	mov	r23,r5
 10031dc:	2025883a 	mov	r18,r4
 10031e0:	15802916 	blt	r2,r22,1003288 <floor+0xf4>
 10031e4:	b0004816 	blt	r22,zero,1003308 <floor+0x174>
 10031e8:	00800434 	movhi	r2,16
 10031ec:	10bfffc4 	addi	r2,r2,-1
 10031f0:	15b9d83a 	sra	fp,r2,r22
 10031f4:	282f883a 	mov	r23,r5
 10031f8:	e144703a 	and	r2,fp,r5
 10031fc:	1104b03a 	or	r2,r2,r4
 1003200:	10001326 	beq	r2,zero,1003250 <floor+0xbc>
 1003204:	00a20034 	movhi	r2,34816
 1003208:	109d6704 	addi	r2,r2,30108
 100320c:	00df8e34 	movhi	r3,32312
 1003210:	18f90f04 	addi	r3,r3,-7108
 1003214:	180f883a 	mov	r7,r3
 1003218:	100d883a 	mov	r6,r2
 100321c:	1003e480 	call	1003e48 <__adddf3>
 1003220:	180b883a 	mov	r5,r3
 1003224:	000d883a 	mov	r6,zero
 1003228:	000f883a 	mov	r7,zero
 100322c:	1009883a 	mov	r4,r2
 1003230:	10043080 	call	1004308 <__gtdf2>
 1003234:	0080040e 	bge	zero,r2,1003248 <floor+0xb4>
 1003238:	88004416 	blt	r17,zero,100334c <floor+0x1b8>
 100323c:	0704303a 	nor	r2,zero,fp
 1003240:	b8ae703a 	and	r23,r23,r2
 1003244:	0025883a 	mov	r18,zero
 1003248:	9021883a 	mov	r16,r18
 100324c:	b823883a 	mov	r17,r23
 1003250:	8005883a 	mov	r2,r16
 1003254:	8807883a 	mov	r3,r17
 1003258:	dfc00917 	ldw	ra,36(sp)
 100325c:	df000817 	ldw	fp,32(sp)
 1003260:	ddc00717 	ldw	r23,28(sp)
 1003264:	dd800617 	ldw	r22,24(sp)
 1003268:	dd400517 	ldw	r21,20(sp)
 100326c:	dd000417 	ldw	r20,16(sp)
 1003270:	dcc00317 	ldw	r19,12(sp)
 1003274:	dc800217 	ldw	r18,8(sp)
 1003278:	dc400117 	ldw	r17,4(sp)
 100327c:	dc000017 	ldw	r16,0(sp)
 1003280:	dec00a04 	addi	sp,sp,40
 1003284:	f800283a 	ret
 1003288:	00800cc4 	movi	r2,51
 100328c:	15801616 	blt	r2,r22,10032e8 <floor+0x154>
 1003290:	18befb44 	addi	r2,r3,-1043
 1003294:	00ffffc4 	movi	r3,-1
 1003298:	18b8d83a 	srl	fp,r3,r2
 100329c:	e104703a 	and	r2,fp,r4
 10032a0:	103feb26 	beq	r2,zero,1003250 <floor+0xbc>
 10032a4:	00a20034 	movhi	r2,34816
 10032a8:	109d6704 	addi	r2,r2,30108
 10032ac:	00df8e34 	movhi	r3,32312
 10032b0:	18f90f04 	addi	r3,r3,-7108
 10032b4:	180f883a 	mov	r7,r3
 10032b8:	100d883a 	mov	r6,r2
 10032bc:	1003e480 	call	1003e48 <__adddf3>
 10032c0:	180b883a 	mov	r5,r3
 10032c4:	000d883a 	mov	r6,zero
 10032c8:	000f883a 	mov	r7,zero
 10032cc:	1009883a 	mov	r4,r2
 10032d0:	10043080 	call	1004308 <__gtdf2>
 10032d4:	0080210e 	bge	zero,r2,100335c <floor+0x1c8>
 10032d8:	88002216 	blt	r17,zero,1003364 <floor+0x1d0>
 10032dc:	0704303a 	nor	r2,zero,fp
 10032e0:	90a4703a 	and	r18,r18,r2
 10032e4:	003fd806 	br	1003248 <floor+0xb4>
 10032e8:	00810004 	movi	r2,1024
 10032ec:	b0bfd81e 	bne	r22,r2,1003250 <floor+0xbc>
 10032f0:	800d883a 	mov	r6,r16
 10032f4:	280f883a 	mov	r7,r5
 10032f8:	1003e480 	call	1003e48 <__adddf3>
 10032fc:	1021883a 	mov	r16,r2
 1003300:	1823883a 	mov	r17,r3
 1003304:	003fd206 	br	1003250 <floor+0xbc>
 1003308:	00a20034 	movhi	r2,34816
 100330c:	109d6704 	addi	r2,r2,30108
 1003310:	00df8e34 	movhi	r3,32312
 1003314:	18f90f04 	addi	r3,r3,-7108
 1003318:	180f883a 	mov	r7,r3
 100331c:	100d883a 	mov	r6,r2
 1003320:	1003e480 	call	1003e48 <__adddf3>
 1003324:	180b883a 	mov	r5,r3
 1003328:	000d883a 	mov	r6,zero
 100332c:	000f883a 	mov	r7,zero
 1003330:	1009883a 	mov	r4,r2
 1003334:	10043080 	call	1004308 <__gtdf2>
 1003338:	00bfc30e 	bge	zero,r2,1003248 <floor+0xb4>
 100333c:	88001416 	blt	r17,zero,1003390 <floor+0x1fc>
 1003340:	002f883a 	mov	r23,zero
 1003344:	0025883a 	mov	r18,zero
 1003348:	003fbf06 	br	1003248 <floor+0xb4>
 100334c:	00800434 	movhi	r2,16
 1003350:	1585d83a 	sra	r2,r2,r22
 1003354:	88af883a 	add	r23,r17,r2
 1003358:	003fb806 	br	100323c <floor+0xa8>
 100335c:	882f883a 	mov	r23,r17
 1003360:	003fb906 	br	1003248 <floor+0xb4>
 1003364:	00800504 	movi	r2,20
 1003368:	b0801126 	beq	r22,r2,10033b0 <floor+0x21c>
 100336c:	00c00d04 	movi	r3,52
 1003370:	1d87c83a 	sub	r3,r3,r22
 1003374:	00800044 	movi	r2,1
 1003378:	10c4983a 	sll	r2,r2,r3
 100337c:	8085883a 	add	r2,r16,r2
 1003380:	1400012e 	bgeu	r2,r16,1003388 <floor+0x1f4>
 1003384:	8dc00044 	addi	r23,r17,1
 1003388:	1025883a 	mov	r18,r2
 100338c:	003fd306 	br	10032dc <floor+0x148>
 1003390:	00a00034 	movhi	r2,32768
 1003394:	10bfffc4 	addi	r2,r2,-1
 1003398:	8884703a 	and	r2,r17,r2
 100339c:	8084b03a 	or	r2,r16,r2
 10033a0:	103fee26 	beq	r2,zero,100335c <floor+0x1c8>
 10033a4:	05effc34 	movhi	r23,49136
 10033a8:	0025883a 	mov	r18,zero
 10033ac:	003fa606 	br	1003248 <floor+0xb4>
 10033b0:	8dc00044 	addi	r23,r17,1
 10033b4:	003fc906 	br	10032dc <floor+0x148>

010033b8 <scalbn>:
 10033b8:	2011883a 	mov	r8,r4
 10033bc:	291ffc2c 	andhi	r4,r5,32752
 10033c0:	2009d53a 	srai	r4,r4,20
 10033c4:	defffd04 	addi	sp,sp,-12
 10033c8:	dc000015 	stw	r16,0(sp)
 10033cc:	dfc00215 	stw	ra,8(sp)
 10033d0:	dc400115 	stw	r17,4(sp)
 10033d4:	2813883a 	mov	r9,r5
 10033d8:	2815883a 	mov	r10,r5
 10033dc:	3021883a 	mov	r16,r6
 10033e0:	2000281e 	bne	r4,zero,1003484 <scalbn+0xcc>
 10033e4:	00a00034 	movhi	r2,32768
 10033e8:	10bfffc4 	addi	r2,r2,-1
 10033ec:	2884703a 	and	r2,r5,r2
 10033f0:	4084b03a 	or	r2,r8,r2
 10033f4:	10001826 	beq	r2,zero,1003458 <scalbn+0xa0>
 10033f8:	0005883a 	mov	r2,zero
 10033fc:	00d0d434 	movhi	r3,17232
 1003400:	4009883a 	mov	r4,r8
 1003404:	100d883a 	mov	r6,r2
 1003408:	180f883a 	mov	r7,r3
 100340c:	1003ebc0 	call	1003ebc <__muldf3>
 1003410:	100b883a 	mov	r5,r2
 1003414:	1011883a 	mov	r8,r2
 1003418:	00bffff4 	movhi	r2,65535
 100341c:	108f2c04 	addi	r2,r2,15536
 1003420:	180d883a 	mov	r6,r3
 1003424:	1813883a 	mov	r9,r3
 1003428:	8080120e 	bge	r16,r2,1003474 <scalbn+0xbc>
 100342c:	00b0be74 	movhi	r2,49913
 1003430:	10bcd644 	addi	r2,r2,-3239
 1003434:	00c06974 	movhi	r3,421
 1003438:	18db87c4 	addi	r3,r3,28191
 100343c:	2809883a 	mov	r4,r5
 1003440:	180f883a 	mov	r7,r3
 1003444:	300b883a 	mov	r5,r6
 1003448:	100d883a 	mov	r6,r2
 100344c:	1003ebc0 	call	1003ebc <__muldf3>
 1003450:	1011883a 	mov	r8,r2
 1003454:	1813883a 	mov	r9,r3
 1003458:	4005883a 	mov	r2,r8
 100345c:	4807883a 	mov	r3,r9
 1003460:	dfc00217 	ldw	ra,8(sp)
 1003464:	dc400117 	ldw	r17,4(sp)
 1003468:	dc000017 	ldw	r16,0(sp)
 100346c:	dec00304 	addi	sp,sp,12
 1003470:	f800283a 	ret
 1003474:	189ffc2c 	andhi	r2,r3,32752
 1003478:	1005d53a 	srai	r2,r2,20
 100347c:	1815883a 	mov	r10,r3
 1003480:	113ff284 	addi	r4,r2,-54
 1003484:	0081ffc4 	movi	r2,2047
 1003488:	20801126 	beq	r4,r2,10034d0 <scalbn+0x118>
 100348c:	2409883a 	add	r4,r4,r16
 1003490:	0081ff84 	movi	r2,2046
 1003494:	11001c16 	blt	r2,r4,1003508 <scalbn+0x150>
 1003498:	0100290e 	bge	zero,r4,1003540 <scalbn+0x188>
 100349c:	200a953a 	slli	r5,r4,20
 10034a0:	01200434 	movhi	r4,32784
 10034a4:	213fffc4 	addi	r4,r4,-1
 10034a8:	5108703a 	and	r4,r10,r4
 10034ac:	2148b03a 	or	r4,r4,r5
 10034b0:	2013883a 	mov	r9,r4
 10034b4:	4005883a 	mov	r2,r8
 10034b8:	4807883a 	mov	r3,r9
 10034bc:	dfc00217 	ldw	ra,8(sp)
 10034c0:	dc400117 	ldw	r17,4(sp)
 10034c4:	dc000017 	ldw	r16,0(sp)
 10034c8:	dec00304 	addi	sp,sp,12
 10034cc:	f800283a 	ret
 10034d0:	480f883a 	mov	r7,r9
 10034d4:	4009883a 	mov	r4,r8
 10034d8:	480b883a 	mov	r5,r9
 10034dc:	400d883a 	mov	r6,r8
 10034e0:	1003e480 	call	1003e48 <__adddf3>
 10034e4:	1011883a 	mov	r8,r2
 10034e8:	1813883a 	mov	r9,r3
 10034ec:	4005883a 	mov	r2,r8
 10034f0:	4807883a 	mov	r3,r9
 10034f4:	dfc00217 	ldw	ra,8(sp)
 10034f8:	dc400117 	ldw	r17,4(sp)
 10034fc:	dc000017 	ldw	r16,0(sp)
 1003500:	dec00304 	addi	sp,sp,12
 1003504:	f800283a 	ret
 1003508:	04220034 	movhi	r16,34816
 100350c:	841d6704 	addi	r16,r16,30108
 1003510:	045f8e34 	movhi	r17,32312
 1003514:	8c790f04 	addi	r17,r17,-7108
 1003518:	480f883a 	mov	r7,r9
 100351c:	400d883a 	mov	r6,r8
 1003520:	8009883a 	mov	r4,r16
 1003524:	880b883a 	mov	r5,r17
 1003528:	10035980 	call	1003598 <copysign>
 100352c:	180b883a 	mov	r5,r3
 1003530:	800d883a 	mov	r6,r16
 1003534:	880f883a 	mov	r7,r17
 1003538:	1009883a 	mov	r4,r2
 100353c:	003fc306 	br	100344c <scalbn+0x94>
 1003540:	00bff284 	movi	r2,-54
 1003544:	11000716 	blt	r2,r4,1003564 <scalbn+0x1ac>
 1003548:	00b0d414 	movui	r2,50000
 100354c:	143fee16 	blt	r2,r16,1003508 <scalbn+0x150>
 1003550:	0430be74 	movhi	r16,49913
 1003554:	843cd644 	addi	r16,r16,-3239
 1003558:	04406974 	movhi	r17,421
 100355c:	8c5b87c4 	addi	r17,r17,28191
 1003560:	003fed06 	br	1003518 <scalbn+0x160>
 1003564:	21000d84 	addi	r4,r4,54
 1003568:	2008953a 	slli	r4,r4,20
 100356c:	01e00434 	movhi	r7,32784
 1003570:	39ffffc4 	addi	r7,r7,-1
 1003574:	51ce703a 	and	r7,r10,r7
 1003578:	390eb03a 	or	r7,r7,r4
 100357c:	024f2434 	movhi	r9,15504
 1003580:	4009883a 	mov	r4,r8
 1003584:	0011883a 	mov	r8,zero
 1003588:	380b883a 	mov	r5,r7
 100358c:	400d883a 	mov	r6,r8
 1003590:	480f883a 	mov	r7,r9
 1003594:	003fad06 	br	100344c <scalbn+0x94>

01003598 <copysign>:
 1003598:	3813883a 	mov	r9,r7
 100359c:	01e00034 	movhi	r7,32768
 10035a0:	39ffffc4 	addi	r7,r7,-1
 10035a4:	394e703a 	and	r7,r7,r5
 10035a8:	4aa0002c 	andhi	r10,r9,32768
 10035ac:	3a8eb03a 	or	r7,r7,r10
 10035b0:	2005883a 	mov	r2,r4
 10035b4:	3807883a 	mov	r3,r7
 10035b8:	f800283a 	ret

010035bc <_fpadd_parts>:
 10035bc:	21c00017 	ldw	r7,0(r4)
 10035c0:	02000044 	movi	r8,1
 10035c4:	41c0332e 	bgeu	r8,r7,1003694 <_fpadd_parts+0xd8>
 10035c8:	28800017 	ldw	r2,0(r5)
 10035cc:	4080462e 	bgeu	r8,r2,10036e8 <_fpadd_parts+0x12c>
 10035d0:	00c00104 	movi	r3,4
 10035d4:	38c06b26 	beq	r7,r3,1003784 <_fpadd_parts+0x1c8>
 10035d8:	10c04326 	beq	r2,r3,10036e8 <_fpadd_parts+0x12c>
 10035dc:	00c00084 	movi	r3,2
 10035e0:	10c02e26 	beq	r2,r3,100369c <_fpadd_parts+0xe0>
 10035e4:	38c04026 	beq	r7,r3,10036e8 <_fpadd_parts+0x12c>
 10035e8:	22800217 	ldw	r10,8(r4)
 10035ec:	28c00217 	ldw	r3,8(r5)
 10035f0:	23000317 	ldw	r12,12(r4)
 10035f4:	2a400317 	ldw	r9,12(r5)
 10035f8:	50cfc83a 	sub	r7,r10,r3
 10035fc:	3817883a 	mov	r11,r7
 1003600:	38004f16 	blt	r7,zero,1003740 <_fpadd_parts+0x184>
 1003604:	008007c4 	movi	r2,31
 1003608:	11c03316 	blt	r2,r7,10036d8 <_fpadd_parts+0x11c>
 100360c:	02c0540e 	bge	zero,r11,1003760 <_fpadd_parts+0x1a4>
 1003610:	41c4983a 	sll	r2,r8,r7
 1003614:	49c6d83a 	srl	r3,r9,r7
 1003618:	10bfffc4 	addi	r2,r2,-1
 100361c:	4884703a 	and	r2,r9,r2
 1003620:	1004c03a 	cmpne	r2,r2,zero
 1003624:	1892b03a 	or	r9,r3,r2
 1003628:	20c00117 	ldw	r3,4(r4)
 100362c:	28800117 	ldw	r2,4(r5)
 1003630:	18803c26 	beq	r3,r2,1003724 <_fpadd_parts+0x168>
 1003634:	18002f26 	beq	r3,zero,10036f4 <_fpadd_parts+0x138>
 1003638:	4b05c83a 	sub	r2,r9,r12
 100363c:	10004216 	blt	r2,zero,1003748 <_fpadd_parts+0x18c>
 1003640:	32800215 	stw	r10,8(r6)
 1003644:	30800315 	stw	r2,12(r6)
 1003648:	30000115 	stw	zero,4(r6)
 100364c:	31000317 	ldw	r4,12(r6)
 1003650:	01d00034 	movhi	r7,16384
 1003654:	39ffff84 	addi	r7,r7,-2
 1003658:	20bfffc4 	addi	r2,r4,-1
 100365c:	2007883a 	mov	r3,r4
 1003660:	38800836 	bltu	r7,r2,1003684 <_fpadd_parts+0xc8>
 1003664:	31400217 	ldw	r5,8(r6)
 1003668:	18c9883a 	add	r4,r3,r3
 100366c:	20bfffc4 	addi	r2,r4,-1
 1003670:	297fffc4 	addi	r5,r5,-1
 1003674:	2007883a 	mov	r3,r4
 1003678:	38bffb2e 	bgeu	r7,r2,1003668 <_fpadd_parts+0xac>
 100367c:	31400215 	stw	r5,8(r6)
 1003680:	31000315 	stw	r4,12(r6)
 1003684:	008000c4 	movi	r2,3
 1003688:	30800015 	stw	r2,0(r6)
 100368c:	20001b16 	blt	r4,zero,10036fc <_fpadd_parts+0x140>
 1003690:	3009883a 	mov	r4,r6
 1003694:	2005883a 	mov	r2,r4
 1003698:	f800283a 	ret
 100369c:	38fffd1e 	bne	r7,r3,1003694 <_fpadd_parts+0xd8>
 10036a0:	31c00015 	stw	r7,0(r6)
 10036a4:	20800117 	ldw	r2,4(r4)
 10036a8:	30800115 	stw	r2,4(r6)
 10036ac:	20c00217 	ldw	r3,8(r4)
 10036b0:	30c00215 	stw	r3,8(r6)
 10036b4:	20800317 	ldw	r2,12(r4)
 10036b8:	30800315 	stw	r2,12(r6)
 10036bc:	20c00117 	ldw	r3,4(r4)
 10036c0:	28800117 	ldw	r2,4(r5)
 10036c4:	3009883a 	mov	r4,r6
 10036c8:	1886703a 	and	r3,r3,r2
 10036cc:	2005883a 	mov	r2,r4
 10036d0:	30c00115 	stw	r3,4(r6)
 10036d4:	f800283a 	ret
 10036d8:	1a801716 	blt	r3,r10,1003738 <_fpadd_parts+0x17c>
 10036dc:	1815883a 	mov	r10,r3
 10036e0:	0019883a 	mov	r12,zero
 10036e4:	003fd006 	br	1003628 <_fpadd_parts+0x6c>
 10036e8:	2809883a 	mov	r4,r5
 10036ec:	2005883a 	mov	r2,r4
 10036f0:	f800283a 	ret
 10036f4:	6245c83a 	sub	r2,r12,r9
 10036f8:	003fd006 	br	100363c <_fpadd_parts+0x80>
 10036fc:	30800217 	ldw	r2,8(r6)
 1003700:	2006d07a 	srli	r3,r4,1
 1003704:	2100004c 	andi	r4,r4,1
 1003708:	10800044 	addi	r2,r2,1
 100370c:	1906b03a 	or	r3,r3,r4
 1003710:	3009883a 	mov	r4,r6
 1003714:	30800215 	stw	r2,8(r6)
 1003718:	2005883a 	mov	r2,r4
 100371c:	30c00315 	stw	r3,12(r6)
 1003720:	f800283a 	ret
 1003724:	4b09883a 	add	r4,r9,r12
 1003728:	30c00115 	stw	r3,4(r6)
 100372c:	32800215 	stw	r10,8(r6)
 1003730:	31000315 	stw	r4,12(r6)
 1003734:	003fd306 	br	1003684 <_fpadd_parts+0xc8>
 1003738:	0013883a 	mov	r9,zero
 100373c:	003fba06 	br	1003628 <_fpadd_parts+0x6c>
 1003740:	01cfc83a 	sub	r7,zero,r7
 1003744:	003faf06 	br	1003604 <_fpadd_parts+0x48>
 1003748:	0089c83a 	sub	r4,zero,r2
 100374c:	00800044 	movi	r2,1
 1003750:	30800115 	stw	r2,4(r6)
 1003754:	32800215 	stw	r10,8(r6)
 1003758:	31000315 	stw	r4,12(r6)
 100375c:	003fbb06 	br	100364c <_fpadd_parts+0x90>
 1003760:	583fb126 	beq	r11,zero,1003628 <_fpadd_parts+0x6c>
 1003764:	41c4983a 	sll	r2,r8,r7
 1003768:	61c6d83a 	srl	r3,r12,r7
 100376c:	51d5883a 	add	r10,r10,r7
 1003770:	10bfffc4 	addi	r2,r2,-1
 1003774:	6084703a 	and	r2,r12,r2
 1003778:	1004c03a 	cmpne	r2,r2,zero
 100377c:	1898b03a 	or	r12,r3,r2
 1003780:	003fa906 	br	1003628 <_fpadd_parts+0x6c>
 1003784:	11ffc31e 	bne	r2,r7,1003694 <_fpadd_parts+0xd8>
 1003788:	28c00117 	ldw	r3,4(r5)
 100378c:	20800117 	ldw	r2,4(r4)
 1003790:	10ffc026 	beq	r2,r3,1003694 <_fpadd_parts+0xd8>
 1003794:	01004074 	movhi	r4,257
 1003798:	2109a904 	addi	r4,r4,9892
 100379c:	003fbd06 	br	1003694 <_fpadd_parts+0xd8>

010037a0 <__subsf3>:
 10037a0:	deffef04 	addi	sp,sp,-68
 10037a4:	dcc00f15 	stw	r19,60(sp)
 10037a8:	dcc00204 	addi	r19,sp,8
 10037ac:	dc400e15 	stw	r17,56(sp)
 10037b0:	d9000015 	stw	r4,0(sp)
 10037b4:	d9400115 	stw	r5,4(sp)
 10037b8:	d809883a 	mov	r4,sp
 10037bc:	980b883a 	mov	r5,r19
 10037c0:	dc400604 	addi	r17,sp,24
 10037c4:	dfc01015 	stw	ra,64(sp)
 10037c8:	1004aa80 	call	1004aa8 <__unpack_f>
 10037cc:	d9000104 	addi	r4,sp,4
 10037d0:	880b883a 	mov	r5,r17
 10037d4:	1004aa80 	call	1004aa8 <__unpack_f>
 10037d8:	d8800717 	ldw	r2,28(sp)
 10037dc:	9809883a 	mov	r4,r19
 10037e0:	880b883a 	mov	r5,r17
 10037e4:	d9800a04 	addi	r6,sp,40
 10037e8:	1080005c 	xori	r2,r2,1
 10037ec:	d8800715 	stw	r2,28(sp)
 10037f0:	10035bc0 	call	10035bc <_fpadd_parts>
 10037f4:	1009883a 	mov	r4,r2
 10037f8:	10049480 	call	1004948 <__pack_f>
 10037fc:	dfc01017 	ldw	ra,64(sp)
 1003800:	dcc00f17 	ldw	r19,60(sp)
 1003804:	dc400e17 	ldw	r17,56(sp)
 1003808:	dec01104 	addi	sp,sp,68
 100380c:	f800283a 	ret

01003810 <__addsf3>:
 1003810:	deffef04 	addi	sp,sp,-68
 1003814:	dcc00f15 	stw	r19,60(sp)
 1003818:	dcc00204 	addi	r19,sp,8
 100381c:	dc400e15 	stw	r17,56(sp)
 1003820:	d9000015 	stw	r4,0(sp)
 1003824:	d9400115 	stw	r5,4(sp)
 1003828:	d809883a 	mov	r4,sp
 100382c:	980b883a 	mov	r5,r19
 1003830:	dc400604 	addi	r17,sp,24
 1003834:	dfc01015 	stw	ra,64(sp)
 1003838:	1004aa80 	call	1004aa8 <__unpack_f>
 100383c:	d9000104 	addi	r4,sp,4
 1003840:	880b883a 	mov	r5,r17
 1003844:	1004aa80 	call	1004aa8 <__unpack_f>
 1003848:	d9800a04 	addi	r6,sp,40
 100384c:	9809883a 	mov	r4,r19
 1003850:	880b883a 	mov	r5,r17
 1003854:	10035bc0 	call	10035bc <_fpadd_parts>
 1003858:	1009883a 	mov	r4,r2
 100385c:	10049480 	call	1004948 <__pack_f>
 1003860:	dfc01017 	ldw	ra,64(sp)
 1003864:	dcc00f17 	ldw	r19,60(sp)
 1003868:	dc400e17 	ldw	r17,56(sp)
 100386c:	dec01104 	addi	sp,sp,68
 1003870:	f800283a 	ret

01003874 <__gtsf2>:
 1003874:	defff304 	addi	sp,sp,-52
 1003878:	dc400b15 	stw	r17,44(sp)
 100387c:	dc400204 	addi	r17,sp,8
 1003880:	dc000a15 	stw	r16,40(sp)
 1003884:	d9000015 	stw	r4,0(sp)
 1003888:	d9400115 	stw	r5,4(sp)
 100388c:	d809883a 	mov	r4,sp
 1003890:	880b883a 	mov	r5,r17
 1003894:	dc000604 	addi	r16,sp,24
 1003898:	dfc00c15 	stw	ra,48(sp)
 100389c:	1004aa80 	call	1004aa8 <__unpack_f>
 10038a0:	d9000104 	addi	r4,sp,4
 10038a4:	800b883a 	mov	r5,r16
 10038a8:	1004aa80 	call	1004aa8 <__unpack_f>
 10038ac:	d8800217 	ldw	r2,8(sp)
 10038b0:	00c00044 	movi	r3,1
 10038b4:	01bfffc4 	movi	r6,-1
 10038b8:	1880062e 	bgeu	r3,r2,10038d4 <__gtsf2+0x60>
 10038bc:	d8800617 	ldw	r2,24(sp)
 10038c0:	8809883a 	mov	r4,r17
 10038c4:	800b883a 	mov	r5,r16
 10038c8:	1880022e 	bgeu	r3,r2,10038d4 <__gtsf2+0x60>
 10038cc:	1004b700 	call	1004b70 <__fpcmp_parts_f>
 10038d0:	100d883a 	mov	r6,r2
 10038d4:	3005883a 	mov	r2,r6
 10038d8:	dfc00c17 	ldw	ra,48(sp)
 10038dc:	dc400b17 	ldw	r17,44(sp)
 10038e0:	dc000a17 	ldw	r16,40(sp)
 10038e4:	dec00d04 	addi	sp,sp,52
 10038e8:	f800283a 	ret

010038ec <__ltsf2>:
 10038ec:	defff304 	addi	sp,sp,-52
 10038f0:	dc400b15 	stw	r17,44(sp)
 10038f4:	dc400204 	addi	r17,sp,8
 10038f8:	dc000a15 	stw	r16,40(sp)
 10038fc:	d9000015 	stw	r4,0(sp)
 1003900:	d9400115 	stw	r5,4(sp)
 1003904:	d809883a 	mov	r4,sp
 1003908:	880b883a 	mov	r5,r17
 100390c:	dc000604 	addi	r16,sp,24
 1003910:	dfc00c15 	stw	ra,48(sp)
 1003914:	1004aa80 	call	1004aa8 <__unpack_f>
 1003918:	d9000104 	addi	r4,sp,4
 100391c:	800b883a 	mov	r5,r16
 1003920:	1004aa80 	call	1004aa8 <__unpack_f>
 1003924:	d8800217 	ldw	r2,8(sp)
 1003928:	00c00044 	movi	r3,1
 100392c:	180d883a 	mov	r6,r3
 1003930:	1880062e 	bgeu	r3,r2,100394c <__ltsf2+0x60>
 1003934:	d8800617 	ldw	r2,24(sp)
 1003938:	8809883a 	mov	r4,r17
 100393c:	800b883a 	mov	r5,r16
 1003940:	1880022e 	bgeu	r3,r2,100394c <__ltsf2+0x60>
 1003944:	1004b700 	call	1004b70 <__fpcmp_parts_f>
 1003948:	100d883a 	mov	r6,r2
 100394c:	3005883a 	mov	r2,r6
 1003950:	dfc00c17 	ldw	ra,48(sp)
 1003954:	dc400b17 	ldw	r17,44(sp)
 1003958:	dc000a17 	ldw	r16,40(sp)
 100395c:	dec00d04 	addi	sp,sp,52
 1003960:	f800283a 	ret

01003964 <__extendsfdf2>:
 1003964:	defff904 	addi	sp,sp,-28
 1003968:	d9000115 	stw	r4,4(sp)
 100396c:	d9400204 	addi	r5,sp,8
 1003970:	d9000104 	addi	r4,sp,4
 1003974:	dfc00615 	stw	ra,24(sp)
 1003978:	1004aa80 	call	1004aa8 <__unpack_f>
 100397c:	d9c00517 	ldw	r7,20(sp)
 1003980:	0011883a 	mov	r8,zero
 1003984:	400697ba 	slli	r3,r8,30
 1003988:	3812d0ba 	srli	r9,r7,2
 100398c:	380497ba 	slli	r2,r7,30
 1003990:	d9000217 	ldw	r4,8(sp)
 1003994:	d9400317 	ldw	r5,12(sp)
 1003998:	d9800417 	ldw	r6,16(sp)
 100399c:	48c6b03a 	or	r3,r9,r3
 10039a0:	100f883a 	mov	r7,r2
 10039a4:	d8c00015 	stw	r3,0(sp)
 10039a8:	10045e80 	call	10045e8 <__make_dp>
 10039ac:	dfc00617 	ldw	ra,24(sp)
 10039b0:	dec00704 	addi	sp,sp,28
 10039b4:	f800283a 	ret

010039b8 <_fpadd_parts>:
 10039b8:	defff804 	addi	sp,sp,-32
 10039bc:	dcc00315 	stw	r19,12(sp)
 10039c0:	2027883a 	mov	r19,r4
 10039c4:	21000017 	ldw	r4,0(r4)
 10039c8:	00c00044 	movi	r3,1
 10039cc:	dd400515 	stw	r21,20(sp)
 10039d0:	dd000415 	stw	r20,16(sp)
 10039d4:	ddc00715 	stw	r23,28(sp)
 10039d8:	dd800615 	stw	r22,24(sp)
 10039dc:	dc800215 	stw	r18,8(sp)
 10039e0:	dc400115 	stw	r17,4(sp)
 10039e4:	dc000015 	stw	r16,0(sp)
 10039e8:	282b883a 	mov	r21,r5
 10039ec:	3029883a 	mov	r20,r6
 10039f0:	1900632e 	bgeu	r3,r4,1003b80 <_fpadd_parts+0x1c8>
 10039f4:	28800017 	ldw	r2,0(r5)
 10039f8:	1880812e 	bgeu	r3,r2,1003c00 <_fpadd_parts+0x248>
 10039fc:	00c00104 	movi	r3,4
 1003a00:	20c0dc26 	beq	r4,r3,1003d74 <_fpadd_parts+0x3bc>
 1003a04:	10c07e26 	beq	r2,r3,1003c00 <_fpadd_parts+0x248>
 1003a08:	00c00084 	movi	r3,2
 1003a0c:	10c06726 	beq	r2,r3,1003bac <_fpadd_parts+0x1f4>
 1003a10:	20c07b26 	beq	r4,r3,1003c00 <_fpadd_parts+0x248>
 1003a14:	9dc00217 	ldw	r23,8(r19)
 1003a18:	28c00217 	ldw	r3,8(r5)
 1003a1c:	9c400317 	ldw	r17,12(r19)
 1003a20:	2bc00317 	ldw	r15,12(r5)
 1003a24:	b8cdc83a 	sub	r6,r23,r3
 1003a28:	9c800417 	ldw	r18,16(r19)
 1003a2c:	2c000417 	ldw	r16,16(r5)
 1003a30:	3009883a 	mov	r4,r6
 1003a34:	30009716 	blt	r6,zero,1003c94 <_fpadd_parts+0x2dc>
 1003a38:	00800fc4 	movi	r2,63
 1003a3c:	11806b16 	blt	r2,r6,1003bec <_fpadd_parts+0x234>
 1003a40:	0100a40e 	bge	zero,r4,1003cd4 <_fpadd_parts+0x31c>
 1003a44:	35bff804 	addi	r22,r6,-32
 1003a48:	b000bc16 	blt	r22,zero,1003d3c <_fpadd_parts+0x384>
 1003a4c:	8596d83a 	srl	r11,r16,r22
 1003a50:	0019883a 	mov	r12,zero
 1003a54:	0013883a 	mov	r9,zero
 1003a58:	01000044 	movi	r4,1
 1003a5c:	0015883a 	mov	r10,zero
 1003a60:	b000be16 	blt	r22,zero,1003d5c <_fpadd_parts+0x3a4>
 1003a64:	2590983a 	sll	r8,r4,r22
 1003a68:	000f883a 	mov	r7,zero
 1003a6c:	00bfffc4 	movi	r2,-1
 1003a70:	3889883a 	add	r4,r7,r2
 1003a74:	408b883a 	add	r5,r8,r2
 1003a78:	21cd803a 	cmpltu	r6,r4,r7
 1003a7c:	314b883a 	add	r5,r6,r5
 1003a80:	7904703a 	and	r2,r15,r4
 1003a84:	8146703a 	and	r3,r16,r5
 1003a88:	10c4b03a 	or	r2,r2,r3
 1003a8c:	10000226 	beq	r2,zero,1003a98 <_fpadd_parts+0xe0>
 1003a90:	02400044 	movi	r9,1
 1003a94:	0015883a 	mov	r10,zero
 1003a98:	5a5eb03a 	or	r15,r11,r9
 1003a9c:	62a0b03a 	or	r16,r12,r10
 1003aa0:	99400117 	ldw	r5,4(r19)
 1003aa4:	a8800117 	ldw	r2,4(r21)
 1003aa8:	28806e26 	beq	r5,r2,1003c64 <_fpadd_parts+0x2ac>
 1003aac:	28006626 	beq	r5,zero,1003c48 <_fpadd_parts+0x290>
 1003ab0:	7c45c83a 	sub	r2,r15,r17
 1003ab4:	7889803a 	cmpltu	r4,r15,r2
 1003ab8:	8487c83a 	sub	r3,r16,r18
 1003abc:	1909c83a 	sub	r4,r3,r4
 1003ac0:	100d883a 	mov	r6,r2
 1003ac4:	200f883a 	mov	r7,r4
 1003ac8:	38007716 	blt	r7,zero,1003ca8 <_fpadd_parts+0x2f0>
 1003acc:	a5c00215 	stw	r23,8(r20)
 1003ad0:	a1c00415 	stw	r7,16(r20)
 1003ad4:	a0000115 	stw	zero,4(r20)
 1003ad8:	a1800315 	stw	r6,12(r20)
 1003adc:	a2000317 	ldw	r8,12(r20)
 1003ae0:	a2400417 	ldw	r9,16(r20)
 1003ae4:	00bfffc4 	movi	r2,-1
 1003ae8:	408b883a 	add	r5,r8,r2
 1003aec:	2a09803a 	cmpltu	r4,r5,r8
 1003af0:	488d883a 	add	r6,r9,r2
 1003af4:	01c40034 	movhi	r7,4096
 1003af8:	39ffffc4 	addi	r7,r7,-1
 1003afc:	218d883a 	add	r6,r4,r6
 1003b00:	39801736 	bltu	r7,r6,1003b60 <_fpadd_parts+0x1a8>
 1003b04:	31c06526 	beq	r6,r7,1003c9c <_fpadd_parts+0x2e4>
 1003b08:	a3000217 	ldw	r12,8(r20)
 1003b0c:	4209883a 	add	r4,r8,r8
 1003b10:	00bfffc4 	movi	r2,-1
 1003b14:	220f803a 	cmpltu	r7,r4,r8
 1003b18:	4a4b883a 	add	r5,r9,r9
 1003b1c:	394f883a 	add	r7,r7,r5
 1003b20:	2095883a 	add	r10,r4,r2
 1003b24:	3897883a 	add	r11,r7,r2
 1003b28:	510d803a 	cmpltu	r6,r10,r4
 1003b2c:	6099883a 	add	r12,r12,r2
 1003b30:	32d7883a 	add	r11,r6,r11
 1003b34:	00840034 	movhi	r2,4096
 1003b38:	10bfffc4 	addi	r2,r2,-1
 1003b3c:	2011883a 	mov	r8,r4
 1003b40:	3813883a 	mov	r9,r7
 1003b44:	a1000315 	stw	r4,12(r20)
 1003b48:	a1c00415 	stw	r7,16(r20)
 1003b4c:	a3000215 	stw	r12,8(r20)
 1003b50:	12c00336 	bltu	r2,r11,1003b60 <_fpadd_parts+0x1a8>
 1003b54:	58bfed1e 	bne	r11,r2,1003b0c <_fpadd_parts+0x154>
 1003b58:	00bfff84 	movi	r2,-2
 1003b5c:	12bfeb2e 	bgeu	r2,r10,1003b0c <_fpadd_parts+0x154>
 1003b60:	a2800417 	ldw	r10,16(r20)
 1003b64:	008000c4 	movi	r2,3
 1003b68:	00c80034 	movhi	r3,8192
 1003b6c:	18ffffc4 	addi	r3,r3,-1
 1003b70:	a2400317 	ldw	r9,12(r20)
 1003b74:	a0800015 	stw	r2,0(r20)
 1003b78:	1a802336 	bltu	r3,r10,1003c08 <_fpadd_parts+0x250>
 1003b7c:	a027883a 	mov	r19,r20
 1003b80:	9805883a 	mov	r2,r19
 1003b84:	ddc00717 	ldw	r23,28(sp)
 1003b88:	dd800617 	ldw	r22,24(sp)
 1003b8c:	dd400517 	ldw	r21,20(sp)
 1003b90:	dd000417 	ldw	r20,16(sp)
 1003b94:	dcc00317 	ldw	r19,12(sp)
 1003b98:	dc800217 	ldw	r18,8(sp)
 1003b9c:	dc400117 	ldw	r17,4(sp)
 1003ba0:	dc000017 	ldw	r16,0(sp)
 1003ba4:	dec00804 	addi	sp,sp,32
 1003ba8:	f800283a 	ret
 1003bac:	20fff41e 	bne	r4,r3,1003b80 <_fpadd_parts+0x1c8>
 1003bb0:	31000015 	stw	r4,0(r6)
 1003bb4:	98800117 	ldw	r2,4(r19)
 1003bb8:	30800115 	stw	r2,4(r6)
 1003bbc:	98c00217 	ldw	r3,8(r19)
 1003bc0:	30c00215 	stw	r3,8(r6)
 1003bc4:	98800317 	ldw	r2,12(r19)
 1003bc8:	30800315 	stw	r2,12(r6)
 1003bcc:	98c00417 	ldw	r3,16(r19)
 1003bd0:	30c00415 	stw	r3,16(r6)
 1003bd4:	98800117 	ldw	r2,4(r19)
 1003bd8:	28c00117 	ldw	r3,4(r5)
 1003bdc:	3027883a 	mov	r19,r6
 1003be0:	10c4703a 	and	r2,r2,r3
 1003be4:	30800115 	stw	r2,4(r6)
 1003be8:	003fe506 	br	1003b80 <_fpadd_parts+0x1c8>
 1003bec:	1dc02616 	blt	r3,r23,1003c88 <_fpadd_parts+0x2d0>
 1003bf0:	0023883a 	mov	r17,zero
 1003bf4:	182f883a 	mov	r23,r3
 1003bf8:	0025883a 	mov	r18,zero
 1003bfc:	003fa806 	br	1003aa0 <_fpadd_parts+0xe8>
 1003c00:	a827883a 	mov	r19,r21
 1003c04:	003fde06 	br	1003b80 <_fpadd_parts+0x1c8>
 1003c08:	01800044 	movi	r6,1
 1003c0c:	500497fa 	slli	r2,r10,31
 1003c10:	4808d07a 	srli	r4,r9,1
 1003c14:	518ad83a 	srl	r5,r10,r6
 1003c18:	a2000217 	ldw	r8,8(r20)
 1003c1c:	1108b03a 	or	r4,r2,r4
 1003c20:	0007883a 	mov	r3,zero
 1003c24:	4984703a 	and	r2,r9,r6
 1003c28:	208cb03a 	or	r6,r4,r2
 1003c2c:	28ceb03a 	or	r7,r5,r3
 1003c30:	42000044 	addi	r8,r8,1
 1003c34:	a027883a 	mov	r19,r20
 1003c38:	a1c00415 	stw	r7,16(r20)
 1003c3c:	a2000215 	stw	r8,8(r20)
 1003c40:	a1800315 	stw	r6,12(r20)
 1003c44:	003fce06 	br	1003b80 <_fpadd_parts+0x1c8>
 1003c48:	8bc5c83a 	sub	r2,r17,r15
 1003c4c:	8889803a 	cmpltu	r4,r17,r2
 1003c50:	9407c83a 	sub	r3,r18,r16
 1003c54:	1909c83a 	sub	r4,r3,r4
 1003c58:	100d883a 	mov	r6,r2
 1003c5c:	200f883a 	mov	r7,r4
 1003c60:	003f9906 	br	1003ac8 <_fpadd_parts+0x110>
 1003c64:	7c45883a 	add	r2,r15,r17
 1003c68:	13c9803a 	cmpltu	r4,r2,r15
 1003c6c:	8487883a 	add	r3,r16,r18
 1003c70:	20c9883a 	add	r4,r4,r3
 1003c74:	a1400115 	stw	r5,4(r20)
 1003c78:	a5c00215 	stw	r23,8(r20)
 1003c7c:	a0800315 	stw	r2,12(r20)
 1003c80:	a1000415 	stw	r4,16(r20)
 1003c84:	003fb606 	br	1003b60 <_fpadd_parts+0x1a8>
 1003c88:	001f883a 	mov	r15,zero
 1003c8c:	0021883a 	mov	r16,zero
 1003c90:	003f8306 	br	1003aa0 <_fpadd_parts+0xe8>
 1003c94:	018dc83a 	sub	r6,zero,r6
 1003c98:	003f6706 	br	1003a38 <_fpadd_parts+0x80>
 1003c9c:	00bfff84 	movi	r2,-2
 1003ca0:	117faf36 	bltu	r2,r5,1003b60 <_fpadd_parts+0x1a8>
 1003ca4:	003f9806 	br	1003b08 <_fpadd_parts+0x150>
 1003ca8:	0005883a 	mov	r2,zero
 1003cac:	1189c83a 	sub	r4,r2,r6
 1003cb0:	1105803a 	cmpltu	r2,r2,r4
 1003cb4:	01cbc83a 	sub	r5,zero,r7
 1003cb8:	2885c83a 	sub	r2,r5,r2
 1003cbc:	01800044 	movi	r6,1
 1003cc0:	a1800115 	stw	r6,4(r20)
 1003cc4:	a5c00215 	stw	r23,8(r20)
 1003cc8:	a1000315 	stw	r4,12(r20)
 1003ccc:	a0800415 	stw	r2,16(r20)
 1003cd0:	003f8206 	br	1003adc <_fpadd_parts+0x124>
 1003cd4:	203f7226 	beq	r4,zero,1003aa0 <_fpadd_parts+0xe8>
 1003cd8:	35bff804 	addi	r22,r6,-32
 1003cdc:	b9af883a 	add	r23,r23,r6
 1003ce0:	b0003116 	blt	r22,zero,1003da8 <_fpadd_parts+0x3f0>
 1003ce4:	959ad83a 	srl	r13,r18,r22
 1003ce8:	001d883a 	mov	r14,zero
 1003cec:	000f883a 	mov	r7,zero
 1003cf0:	01000044 	movi	r4,1
 1003cf4:	0011883a 	mov	r8,zero
 1003cf8:	b0002516 	blt	r22,zero,1003d90 <_fpadd_parts+0x3d8>
 1003cfc:	2594983a 	sll	r10,r4,r22
 1003d00:	0013883a 	mov	r9,zero
 1003d04:	00bfffc4 	movi	r2,-1
 1003d08:	4889883a 	add	r4,r9,r2
 1003d0c:	508b883a 	add	r5,r10,r2
 1003d10:	224d803a 	cmpltu	r6,r4,r9
 1003d14:	314b883a 	add	r5,r6,r5
 1003d18:	8904703a 	and	r2,r17,r4
 1003d1c:	9146703a 	and	r3,r18,r5
 1003d20:	10c4b03a 	or	r2,r2,r3
 1003d24:	10000226 	beq	r2,zero,1003d30 <_fpadd_parts+0x378>
 1003d28:	01c00044 	movi	r7,1
 1003d2c:	0011883a 	mov	r8,zero
 1003d30:	69e2b03a 	or	r17,r13,r7
 1003d34:	7224b03a 	or	r18,r14,r8
 1003d38:	003f5906 	br	1003aa0 <_fpadd_parts+0xe8>
 1003d3c:	8407883a 	add	r3,r16,r16
 1003d40:	008007c4 	movi	r2,31
 1003d44:	1185c83a 	sub	r2,r2,r6
 1003d48:	1886983a 	sll	r3,r3,r2
 1003d4c:	7996d83a 	srl	r11,r15,r6
 1003d50:	8198d83a 	srl	r12,r16,r6
 1003d54:	1ad6b03a 	or	r11,r3,r11
 1003d58:	003f3e06 	br	1003a54 <_fpadd_parts+0x9c>
 1003d5c:	2006d07a 	srli	r3,r4,1
 1003d60:	008007c4 	movi	r2,31
 1003d64:	1185c83a 	sub	r2,r2,r6
 1003d68:	1890d83a 	srl	r8,r3,r2
 1003d6c:	218e983a 	sll	r7,r4,r6
 1003d70:	003f3e06 	br	1003a6c <_fpadd_parts+0xb4>
 1003d74:	113f821e 	bne	r2,r4,1003b80 <_fpadd_parts+0x1c8>
 1003d78:	28c00117 	ldw	r3,4(r5)
 1003d7c:	98800117 	ldw	r2,4(r19)
 1003d80:	10ff7f26 	beq	r2,r3,1003b80 <_fpadd_parts+0x1c8>
 1003d84:	04c04074 	movhi	r19,257
 1003d88:	9cc9ad04 	addi	r19,r19,9908
 1003d8c:	003f7c06 	br	1003b80 <_fpadd_parts+0x1c8>
 1003d90:	2006d07a 	srli	r3,r4,1
 1003d94:	008007c4 	movi	r2,31
 1003d98:	1185c83a 	sub	r2,r2,r6
 1003d9c:	1894d83a 	srl	r10,r3,r2
 1003da0:	2192983a 	sll	r9,r4,r6
 1003da4:	003fd706 	br	1003d04 <_fpadd_parts+0x34c>
 1003da8:	9487883a 	add	r3,r18,r18
 1003dac:	008007c4 	movi	r2,31
 1003db0:	1185c83a 	sub	r2,r2,r6
 1003db4:	1886983a 	sll	r3,r3,r2
 1003db8:	899ad83a 	srl	r13,r17,r6
 1003dbc:	919cd83a 	srl	r14,r18,r6
 1003dc0:	1b5ab03a 	or	r13,r3,r13
 1003dc4:	003fc906 	br	1003cec <_fpadd_parts+0x334>

01003dc8 <__subdf3>:
 1003dc8:	deffea04 	addi	sp,sp,-88
 1003dcc:	dcc01415 	stw	r19,80(sp)
 1003dd0:	dcc00404 	addi	r19,sp,16
 1003dd4:	2011883a 	mov	r8,r4
 1003dd8:	2813883a 	mov	r9,r5
 1003ddc:	dc401315 	stw	r17,76(sp)
 1003de0:	d809883a 	mov	r4,sp
 1003de4:	980b883a 	mov	r5,r19
 1003de8:	dc400904 	addi	r17,sp,36
 1003dec:	dfc01515 	stw	ra,84(sp)
 1003df0:	da400115 	stw	r9,4(sp)
 1003df4:	d9c00315 	stw	r7,12(sp)
 1003df8:	da000015 	stw	r8,0(sp)
 1003dfc:	d9800215 	stw	r6,8(sp)
 1003e00:	1004f2c0 	call	1004f2c <__unpack_d>
 1003e04:	d9000204 	addi	r4,sp,8
 1003e08:	880b883a 	mov	r5,r17
 1003e0c:	1004f2c0 	call	1004f2c <__unpack_d>
 1003e10:	d8800a17 	ldw	r2,40(sp)
 1003e14:	880b883a 	mov	r5,r17
 1003e18:	9809883a 	mov	r4,r19
 1003e1c:	d9800e04 	addi	r6,sp,56
 1003e20:	1080005c 	xori	r2,r2,1
 1003e24:	d8800a15 	stw	r2,40(sp)
 1003e28:	10039b80 	call	10039b8 <_fpadd_parts>
 1003e2c:	1009883a 	mov	r4,r2
 1003e30:	1004c180 	call	1004c18 <__pack_d>
 1003e34:	dfc01517 	ldw	ra,84(sp)
 1003e38:	dcc01417 	ldw	r19,80(sp)
 1003e3c:	dc401317 	ldw	r17,76(sp)
 1003e40:	dec01604 	addi	sp,sp,88
 1003e44:	f800283a 	ret

01003e48 <__adddf3>:
 1003e48:	deffea04 	addi	sp,sp,-88
 1003e4c:	dcc01415 	stw	r19,80(sp)
 1003e50:	dcc00404 	addi	r19,sp,16
 1003e54:	2011883a 	mov	r8,r4
 1003e58:	2813883a 	mov	r9,r5
 1003e5c:	dc401315 	stw	r17,76(sp)
 1003e60:	d809883a 	mov	r4,sp
 1003e64:	980b883a 	mov	r5,r19
 1003e68:	dc400904 	addi	r17,sp,36
 1003e6c:	dfc01515 	stw	ra,84(sp)
 1003e70:	da400115 	stw	r9,4(sp)
 1003e74:	d9c00315 	stw	r7,12(sp)
 1003e78:	da000015 	stw	r8,0(sp)
 1003e7c:	d9800215 	stw	r6,8(sp)
 1003e80:	1004f2c0 	call	1004f2c <__unpack_d>
 1003e84:	d9000204 	addi	r4,sp,8
 1003e88:	880b883a 	mov	r5,r17
 1003e8c:	1004f2c0 	call	1004f2c <__unpack_d>
 1003e90:	d9800e04 	addi	r6,sp,56
 1003e94:	9809883a 	mov	r4,r19
 1003e98:	880b883a 	mov	r5,r17
 1003e9c:	10039b80 	call	10039b8 <_fpadd_parts>
 1003ea0:	1009883a 	mov	r4,r2
 1003ea4:	1004c180 	call	1004c18 <__pack_d>
 1003ea8:	dfc01517 	ldw	ra,84(sp)
 1003eac:	dcc01417 	ldw	r19,80(sp)
 1003eb0:	dc401317 	ldw	r17,76(sp)
 1003eb4:	dec01604 	addi	sp,sp,88
 1003eb8:	f800283a 	ret

01003ebc <__muldf3>:
 1003ebc:	deffe004 	addi	sp,sp,-128
 1003ec0:	dc401815 	stw	r17,96(sp)
 1003ec4:	dc400404 	addi	r17,sp,16
 1003ec8:	2011883a 	mov	r8,r4
 1003ecc:	2813883a 	mov	r9,r5
 1003ed0:	dc001715 	stw	r16,92(sp)
 1003ed4:	d809883a 	mov	r4,sp
 1003ed8:	880b883a 	mov	r5,r17
 1003edc:	dc000904 	addi	r16,sp,36
 1003ee0:	dfc01f15 	stw	ra,124(sp)
 1003ee4:	da400115 	stw	r9,4(sp)
 1003ee8:	d9c00315 	stw	r7,12(sp)
 1003eec:	da000015 	stw	r8,0(sp)
 1003ef0:	d9800215 	stw	r6,8(sp)
 1003ef4:	ddc01e15 	stw	r23,120(sp)
 1003ef8:	dd801d15 	stw	r22,116(sp)
 1003efc:	dd401c15 	stw	r21,112(sp)
 1003f00:	dd001b15 	stw	r20,108(sp)
 1003f04:	dcc01a15 	stw	r19,104(sp)
 1003f08:	dc801915 	stw	r18,100(sp)
 1003f0c:	1004f2c0 	call	1004f2c <__unpack_d>
 1003f10:	d9000204 	addi	r4,sp,8
 1003f14:	800b883a 	mov	r5,r16
 1003f18:	1004f2c0 	call	1004f2c <__unpack_d>
 1003f1c:	d9000417 	ldw	r4,16(sp)
 1003f20:	00800044 	movi	r2,1
 1003f24:	1100102e 	bgeu	r2,r4,1003f68 <__muldf3+0xac>
 1003f28:	d8c00917 	ldw	r3,36(sp)
 1003f2c:	10c0062e 	bgeu	r2,r3,1003f48 <__muldf3+0x8c>
 1003f30:	00800104 	movi	r2,4
 1003f34:	20800a26 	beq	r4,r2,1003f60 <__muldf3+0xa4>
 1003f38:	1880cc26 	beq	r3,r2,100426c <__muldf3+0x3b0>
 1003f3c:	00800084 	movi	r2,2
 1003f40:	20800926 	beq	r4,r2,1003f68 <__muldf3+0xac>
 1003f44:	1880191e 	bne	r3,r2,1003fac <__muldf3+0xf0>
 1003f48:	d8c00a17 	ldw	r3,40(sp)
 1003f4c:	d8800517 	ldw	r2,20(sp)
 1003f50:	8009883a 	mov	r4,r16
 1003f54:	10c4c03a 	cmpne	r2,r2,r3
 1003f58:	d8800a15 	stw	r2,40(sp)
 1003f5c:	00000706 	br	1003f7c <__muldf3+0xc0>
 1003f60:	00800084 	movi	r2,2
 1003f64:	1880c326 	beq	r3,r2,1004274 <__muldf3+0x3b8>
 1003f68:	d8800517 	ldw	r2,20(sp)
 1003f6c:	d8c00a17 	ldw	r3,40(sp)
 1003f70:	8809883a 	mov	r4,r17
 1003f74:	10c4c03a 	cmpne	r2,r2,r3
 1003f78:	d8800515 	stw	r2,20(sp)
 1003f7c:	1004c180 	call	1004c18 <__pack_d>
 1003f80:	dfc01f17 	ldw	ra,124(sp)
 1003f84:	ddc01e17 	ldw	r23,120(sp)
 1003f88:	dd801d17 	ldw	r22,116(sp)
 1003f8c:	dd401c17 	ldw	r21,112(sp)
 1003f90:	dd001b17 	ldw	r20,108(sp)
 1003f94:	dcc01a17 	ldw	r19,104(sp)
 1003f98:	dc801917 	ldw	r18,100(sp)
 1003f9c:	dc401817 	ldw	r17,96(sp)
 1003fa0:	dc001717 	ldw	r16,92(sp)
 1003fa4:	dec02004 	addi	sp,sp,128
 1003fa8:	f800283a 	ret
 1003fac:	dd800717 	ldw	r22,28(sp)
 1003fb0:	dc800c17 	ldw	r18,48(sp)
 1003fb4:	002b883a 	mov	r21,zero
 1003fb8:	0023883a 	mov	r17,zero
 1003fbc:	a80b883a 	mov	r5,r21
 1003fc0:	b00d883a 	mov	r6,r22
 1003fc4:	880f883a 	mov	r7,r17
 1003fc8:	ddc00817 	ldw	r23,32(sp)
 1003fcc:	dcc00d17 	ldw	r19,52(sp)
 1003fd0:	9009883a 	mov	r4,r18
 1003fd4:	10047a40 	call	10047a4 <__muldi3>
 1003fd8:	001b883a 	mov	r13,zero
 1003fdc:	680f883a 	mov	r7,r13
 1003fe0:	b009883a 	mov	r4,r22
 1003fe4:	000b883a 	mov	r5,zero
 1003fe8:	980d883a 	mov	r6,r19
 1003fec:	b82d883a 	mov	r22,r23
 1003ff0:	002f883a 	mov	r23,zero
 1003ff4:	db401615 	stw	r13,88(sp)
 1003ff8:	d8801315 	stw	r2,76(sp)
 1003ffc:	d8c01415 	stw	r3,80(sp)
 1004000:	dcc01515 	stw	r19,84(sp)
 1004004:	10047a40 	call	10047a4 <__muldi3>
 1004008:	b00d883a 	mov	r6,r22
 100400c:	000b883a 	mov	r5,zero
 1004010:	9009883a 	mov	r4,r18
 1004014:	b80f883a 	mov	r7,r23
 1004018:	1021883a 	mov	r16,r2
 100401c:	1823883a 	mov	r17,r3
 1004020:	10047a40 	call	10047a4 <__muldi3>
 1004024:	8085883a 	add	r2,r16,r2
 1004028:	140d803a 	cmpltu	r6,r2,r16
 100402c:	88c7883a 	add	r3,r17,r3
 1004030:	30cd883a 	add	r6,r6,r3
 1004034:	1029883a 	mov	r20,r2
 1004038:	302b883a 	mov	r21,r6
 100403c:	da801317 	ldw	r10,76(sp)
 1004040:	dac01417 	ldw	r11,80(sp)
 1004044:	db001517 	ldw	r12,84(sp)
 1004048:	db401617 	ldw	r13,88(sp)
 100404c:	3440612e 	bgeu	r6,r17,10041d4 <__muldf3+0x318>
 1004050:	0009883a 	mov	r4,zero
 1004054:	5105883a 	add	r2,r10,r4
 1004058:	128d803a 	cmpltu	r6,r2,r10
 100405c:	5d07883a 	add	r3,r11,r20
 1004060:	30cd883a 	add	r6,r6,r3
 1004064:	0021883a 	mov	r16,zero
 1004068:	04400044 	movi	r17,1
 100406c:	1025883a 	mov	r18,r2
 1004070:	3027883a 	mov	r19,r6
 1004074:	32c06236 	bltu	r6,r11,1004200 <__muldf3+0x344>
 1004078:	59807a26 	beq	r11,r6,1004264 <__muldf3+0x3a8>
 100407c:	680b883a 	mov	r5,r13
 1004080:	b80f883a 	mov	r7,r23
 1004084:	6009883a 	mov	r4,r12
 1004088:	b00d883a 	mov	r6,r22
 100408c:	10047a40 	call	10047a4 <__muldi3>
 1004090:	1009883a 	mov	r4,r2
 1004094:	000f883a 	mov	r7,zero
 1004098:	1545883a 	add	r2,r2,r21
 100409c:	1111803a 	cmpltu	r8,r2,r4
 10040a0:	19c7883a 	add	r3,r3,r7
 10040a4:	40c7883a 	add	r3,r8,r3
 10040a8:	88cb883a 	add	r5,r17,r3
 10040ac:	d8c00617 	ldw	r3,24(sp)
 10040b0:	8089883a 	add	r4,r16,r2
 10040b4:	d8800b17 	ldw	r2,44(sp)
 10040b8:	18c00104 	addi	r3,r3,4
 10040bc:	240d803a 	cmpltu	r6,r4,r16
 10040c0:	10c7883a 	add	r3,r2,r3
 10040c4:	2013883a 	mov	r9,r4
 10040c8:	d8800a17 	ldw	r2,40(sp)
 10040cc:	d9000517 	ldw	r4,20(sp)
 10040d0:	314d883a 	add	r6,r6,r5
 10040d4:	3015883a 	mov	r10,r6
 10040d8:	2088c03a 	cmpne	r4,r4,r2
 10040dc:	00880034 	movhi	r2,8192
 10040e0:	10bfffc4 	addi	r2,r2,-1
 10040e4:	d9000f15 	stw	r4,60(sp)
 10040e8:	d8c01015 	stw	r3,64(sp)
 10040ec:	1180162e 	bgeu	r2,r6,1004148 <__muldf3+0x28c>
 10040f0:	1811883a 	mov	r8,r3
 10040f4:	101f883a 	mov	r15,r2
 10040f8:	980497fa 	slli	r2,r19,31
 10040fc:	9016d07a 	srli	r11,r18,1
 1004100:	500697fa 	slli	r3,r10,31
 1004104:	480cd07a 	srli	r6,r9,1
 1004108:	500ed07a 	srli	r7,r10,1
 100410c:	12d6b03a 	or	r11,r2,r11
 1004110:	00800044 	movi	r2,1
 1004114:	198cb03a 	or	r6,r3,r6
 1004118:	4888703a 	and	r4,r9,r2
 100411c:	9818d07a 	srli	r12,r19,1
 1004120:	001b883a 	mov	r13,zero
 1004124:	03a00034 	movhi	r14,32768
 1004128:	3013883a 	mov	r9,r6
 100412c:	3815883a 	mov	r10,r7
 1004130:	4091883a 	add	r8,r8,r2
 1004134:	20000226 	beq	r4,zero,1004140 <__muldf3+0x284>
 1004138:	5b64b03a 	or	r18,r11,r13
 100413c:	63a6b03a 	or	r19,r12,r14
 1004140:	7abfed36 	bltu	r15,r10,10040f8 <__muldf3+0x23c>
 1004144:	da001015 	stw	r8,64(sp)
 1004148:	00840034 	movhi	r2,4096
 100414c:	10bfffc4 	addi	r2,r2,-1
 1004150:	12801436 	bltu	r2,r10,10041a4 <__muldf3+0x2e8>
 1004154:	da001017 	ldw	r8,64(sp)
 1004158:	101f883a 	mov	r15,r2
 100415c:	4a45883a 	add	r2,r9,r9
 1004160:	124d803a 	cmpltu	r6,r2,r9
 1004164:	5287883a 	add	r3,r10,r10
 1004168:	9497883a 	add	r11,r18,r18
 100416c:	5c8f803a 	cmpltu	r7,r11,r18
 1004170:	9cd9883a 	add	r12,r19,r19
 1004174:	01000044 	movi	r4,1
 1004178:	30cd883a 	add	r6,r6,r3
 100417c:	3b0f883a 	add	r7,r7,r12
 1004180:	423fffc4 	addi	r8,r8,-1
 1004184:	1013883a 	mov	r9,r2
 1004188:	3015883a 	mov	r10,r6
 100418c:	111ab03a 	or	r13,r2,r4
 1004190:	98003016 	blt	r19,zero,1004254 <__muldf3+0x398>
 1004194:	5825883a 	mov	r18,r11
 1004198:	3827883a 	mov	r19,r7
 100419c:	7abfef2e 	bgeu	r15,r10,100415c <__muldf3+0x2a0>
 10041a0:	da001015 	stw	r8,64(sp)
 10041a4:	00803fc4 	movi	r2,255
 10041a8:	488e703a 	and	r7,r9,r2
 10041ac:	00802004 	movi	r2,128
 10041b0:	0007883a 	mov	r3,zero
 10041b4:	0011883a 	mov	r8,zero
 10041b8:	38801826 	beq	r7,r2,100421c <__muldf3+0x360>
 10041bc:	008000c4 	movi	r2,3
 10041c0:	d9000e04 	addi	r4,sp,56
 10041c4:	da801215 	stw	r10,72(sp)
 10041c8:	d8800e15 	stw	r2,56(sp)
 10041cc:	da401115 	stw	r9,68(sp)
 10041d0:	003f6a06 	br	1003f7c <__muldf3+0xc0>
 10041d4:	89802126 	beq	r17,r6,100425c <__muldf3+0x3a0>
 10041d8:	0009883a 	mov	r4,zero
 10041dc:	5105883a 	add	r2,r10,r4
 10041e0:	128d803a 	cmpltu	r6,r2,r10
 10041e4:	5d07883a 	add	r3,r11,r20
 10041e8:	30cd883a 	add	r6,r6,r3
 10041ec:	0021883a 	mov	r16,zero
 10041f0:	0023883a 	mov	r17,zero
 10041f4:	1025883a 	mov	r18,r2
 10041f8:	3027883a 	mov	r19,r6
 10041fc:	32ff9e2e 	bgeu	r6,r11,1004078 <__muldf3+0x1bc>
 1004200:	00800044 	movi	r2,1
 1004204:	8089883a 	add	r4,r16,r2
 1004208:	240d803a 	cmpltu	r6,r4,r16
 100420c:	344d883a 	add	r6,r6,r17
 1004210:	2021883a 	mov	r16,r4
 1004214:	3023883a 	mov	r17,r6
 1004218:	003f9806 	br	100407c <__muldf3+0x1c0>
 100421c:	403fe71e 	bne	r8,zero,10041bc <__muldf3+0x300>
 1004220:	01004004 	movi	r4,256
 1004224:	4904703a 	and	r2,r9,r4
 1004228:	10c4b03a 	or	r2,r2,r3
 100422c:	103fe31e 	bne	r2,zero,10041bc <__muldf3+0x300>
 1004230:	94c4b03a 	or	r2,r18,r19
 1004234:	103fe126 	beq	r2,zero,10041bc <__muldf3+0x300>
 1004238:	49c5883a 	add	r2,r9,r7
 100423c:	1251803a 	cmpltu	r8,r2,r9
 1004240:	4291883a 	add	r8,r8,r10
 1004244:	013fc004 	movi	r4,-256
 1004248:	1112703a 	and	r9,r2,r4
 100424c:	4015883a 	mov	r10,r8
 1004250:	003fda06 	br	10041bc <__muldf3+0x300>
 1004254:	6813883a 	mov	r9,r13
 1004258:	003fce06 	br	1004194 <__muldf3+0x2d8>
 100425c:	143f7c36 	bltu	r2,r16,1004050 <__muldf3+0x194>
 1004260:	003fdd06 	br	10041d8 <__muldf3+0x31c>
 1004264:	12bf852e 	bgeu	r2,r10,100407c <__muldf3+0x1c0>
 1004268:	003fe506 	br	1004200 <__muldf3+0x344>
 100426c:	00800084 	movi	r2,2
 1004270:	20bf351e 	bne	r4,r2,1003f48 <__muldf3+0x8c>
 1004274:	01004074 	movhi	r4,257
 1004278:	2109ad04 	addi	r4,r4,9908
 100427c:	003f3f06 	br	1003f7c <__muldf3+0xc0>

01004280 <__eqdf2>:
 1004280:	deffef04 	addi	sp,sp,-68
 1004284:	dc400f15 	stw	r17,60(sp)
 1004288:	dc400404 	addi	r17,sp,16
 100428c:	2005883a 	mov	r2,r4
 1004290:	2807883a 	mov	r3,r5
 1004294:	dc000e15 	stw	r16,56(sp)
 1004298:	d809883a 	mov	r4,sp
 100429c:	880b883a 	mov	r5,r17
 10042a0:	dc000904 	addi	r16,sp,36
 10042a4:	d8c00115 	stw	r3,4(sp)
 10042a8:	d8800015 	stw	r2,0(sp)
 10042ac:	d9800215 	stw	r6,8(sp)
 10042b0:	dfc01015 	stw	ra,64(sp)
 10042b4:	d9c00315 	stw	r7,12(sp)
 10042b8:	1004f2c0 	call	1004f2c <__unpack_d>
 10042bc:	d9000204 	addi	r4,sp,8
 10042c0:	800b883a 	mov	r5,r16
 10042c4:	1004f2c0 	call	1004f2c <__unpack_d>
 10042c8:	d8800417 	ldw	r2,16(sp)
 10042cc:	00c00044 	movi	r3,1
 10042d0:	180d883a 	mov	r6,r3
 10042d4:	1880062e 	bgeu	r3,r2,10042f0 <__eqdf2+0x70>
 10042d8:	d8800917 	ldw	r2,36(sp)
 10042dc:	8809883a 	mov	r4,r17
 10042e0:	800b883a 	mov	r5,r16
 10042e4:	1880022e 	bgeu	r3,r2,10042f0 <__eqdf2+0x70>
 10042e8:	10050640 	call	1005064 <__fpcmp_parts_d>
 10042ec:	100d883a 	mov	r6,r2
 10042f0:	3005883a 	mov	r2,r6
 10042f4:	dfc01017 	ldw	ra,64(sp)
 10042f8:	dc400f17 	ldw	r17,60(sp)
 10042fc:	dc000e17 	ldw	r16,56(sp)
 1004300:	dec01104 	addi	sp,sp,68
 1004304:	f800283a 	ret

01004308 <__gtdf2>:
 1004308:	deffef04 	addi	sp,sp,-68
 100430c:	dc400f15 	stw	r17,60(sp)
 1004310:	dc400404 	addi	r17,sp,16
 1004314:	2005883a 	mov	r2,r4
 1004318:	2807883a 	mov	r3,r5
 100431c:	dc000e15 	stw	r16,56(sp)
 1004320:	d809883a 	mov	r4,sp
 1004324:	880b883a 	mov	r5,r17
 1004328:	dc000904 	addi	r16,sp,36
 100432c:	d8c00115 	stw	r3,4(sp)
 1004330:	d8800015 	stw	r2,0(sp)
 1004334:	d9800215 	stw	r6,8(sp)
 1004338:	dfc01015 	stw	ra,64(sp)
 100433c:	d9c00315 	stw	r7,12(sp)
 1004340:	1004f2c0 	call	1004f2c <__unpack_d>
 1004344:	d9000204 	addi	r4,sp,8
 1004348:	800b883a 	mov	r5,r16
 100434c:	1004f2c0 	call	1004f2c <__unpack_d>
 1004350:	d8800417 	ldw	r2,16(sp)
 1004354:	00c00044 	movi	r3,1
 1004358:	01bfffc4 	movi	r6,-1
 100435c:	1880062e 	bgeu	r3,r2,1004378 <__gtdf2+0x70>
 1004360:	d8800917 	ldw	r2,36(sp)
 1004364:	8809883a 	mov	r4,r17
 1004368:	800b883a 	mov	r5,r16
 100436c:	1880022e 	bgeu	r3,r2,1004378 <__gtdf2+0x70>
 1004370:	10050640 	call	1005064 <__fpcmp_parts_d>
 1004374:	100d883a 	mov	r6,r2
 1004378:	3005883a 	mov	r2,r6
 100437c:	dfc01017 	ldw	ra,64(sp)
 1004380:	dc400f17 	ldw	r17,60(sp)
 1004384:	dc000e17 	ldw	r16,56(sp)
 1004388:	dec01104 	addi	sp,sp,68
 100438c:	f800283a 	ret

01004390 <__gedf2>:
 1004390:	deffef04 	addi	sp,sp,-68
 1004394:	dc400f15 	stw	r17,60(sp)
 1004398:	dc400404 	addi	r17,sp,16
 100439c:	2005883a 	mov	r2,r4
 10043a0:	2807883a 	mov	r3,r5
 10043a4:	dc000e15 	stw	r16,56(sp)
 10043a8:	d809883a 	mov	r4,sp
 10043ac:	880b883a 	mov	r5,r17
 10043b0:	dc000904 	addi	r16,sp,36
 10043b4:	d8c00115 	stw	r3,4(sp)
 10043b8:	d8800015 	stw	r2,0(sp)
 10043bc:	d9800215 	stw	r6,8(sp)
 10043c0:	dfc01015 	stw	ra,64(sp)
 10043c4:	d9c00315 	stw	r7,12(sp)
 10043c8:	1004f2c0 	call	1004f2c <__unpack_d>
 10043cc:	d9000204 	addi	r4,sp,8
 10043d0:	800b883a 	mov	r5,r16
 10043d4:	1004f2c0 	call	1004f2c <__unpack_d>
 10043d8:	d8800417 	ldw	r2,16(sp)
 10043dc:	00c00044 	movi	r3,1
 10043e0:	01bfffc4 	movi	r6,-1
 10043e4:	1880062e 	bgeu	r3,r2,1004400 <__gedf2+0x70>
 10043e8:	d8800917 	ldw	r2,36(sp)
 10043ec:	8809883a 	mov	r4,r17
 10043f0:	800b883a 	mov	r5,r16
 10043f4:	1880022e 	bgeu	r3,r2,1004400 <__gedf2+0x70>
 10043f8:	10050640 	call	1005064 <__fpcmp_parts_d>
 10043fc:	100d883a 	mov	r6,r2
 1004400:	3005883a 	mov	r2,r6
 1004404:	dfc01017 	ldw	ra,64(sp)
 1004408:	dc400f17 	ldw	r17,60(sp)
 100440c:	dc000e17 	ldw	r16,56(sp)
 1004410:	dec01104 	addi	sp,sp,68
 1004414:	f800283a 	ret

01004418 <__floatsidf>:
 1004418:	2006d7fa 	srli	r3,r4,31
 100441c:	defff604 	addi	sp,sp,-40
 1004420:	008000c4 	movi	r2,3
 1004424:	dfc00915 	stw	ra,36(sp)
 1004428:	dcc00815 	stw	r19,32(sp)
 100442c:	dc800715 	stw	r18,28(sp)
 1004430:	dc400615 	stw	r17,24(sp)
 1004434:	dc000515 	stw	r16,20(sp)
 1004438:	d8800015 	stw	r2,0(sp)
 100443c:	d8c00115 	stw	r3,4(sp)
 1004440:	20000f1e 	bne	r4,zero,1004480 <__floatsidf+0x68>
 1004444:	00800084 	movi	r2,2
 1004448:	d8800015 	stw	r2,0(sp)
 100444c:	d809883a 	mov	r4,sp
 1004450:	1004c180 	call	1004c18 <__pack_d>
 1004454:	1009883a 	mov	r4,r2
 1004458:	180b883a 	mov	r5,r3
 100445c:	2005883a 	mov	r2,r4
 1004460:	2807883a 	mov	r3,r5
 1004464:	dfc00917 	ldw	ra,36(sp)
 1004468:	dcc00817 	ldw	r19,32(sp)
 100446c:	dc800717 	ldw	r18,28(sp)
 1004470:	dc400617 	ldw	r17,24(sp)
 1004474:	dc000517 	ldw	r16,20(sp)
 1004478:	dec00a04 	addi	sp,sp,40
 100447c:	f800283a 	ret
 1004480:	00800f04 	movi	r2,60
 1004484:	1807003a 	cmpeq	r3,r3,zero
 1004488:	d8800215 	stw	r2,8(sp)
 100448c:	18001126 	beq	r3,zero,10044d4 <__floatsidf+0xbc>
 1004490:	0027883a 	mov	r19,zero
 1004494:	2025883a 	mov	r18,r4
 1004498:	d9000315 	stw	r4,12(sp)
 100449c:	dcc00415 	stw	r19,16(sp)
 10044a0:	10048c80 	call	10048c8 <__clzsi2>
 10044a4:	11000744 	addi	r4,r2,29
 10044a8:	013fe80e 	bge	zero,r4,100444c <__floatsidf+0x34>
 10044ac:	10bfff44 	addi	r2,r2,-3
 10044b0:	10000c16 	blt	r2,zero,10044e4 <__floatsidf+0xcc>
 10044b4:	90a2983a 	sll	r17,r18,r2
 10044b8:	0021883a 	mov	r16,zero
 10044bc:	d8800217 	ldw	r2,8(sp)
 10044c0:	dc400415 	stw	r17,16(sp)
 10044c4:	dc000315 	stw	r16,12(sp)
 10044c8:	1105c83a 	sub	r2,r2,r4
 10044cc:	d8800215 	stw	r2,8(sp)
 10044d0:	003fde06 	br	100444c <__floatsidf+0x34>
 10044d4:	00a00034 	movhi	r2,32768
 10044d8:	20800a26 	beq	r4,r2,1004504 <__floatsidf+0xec>
 10044dc:	0109c83a 	sub	r4,zero,r4
 10044e0:	003feb06 	br	1004490 <__floatsidf+0x78>
 10044e4:	9006d07a 	srli	r3,r18,1
 10044e8:	008007c4 	movi	r2,31
 10044ec:	1105c83a 	sub	r2,r2,r4
 10044f0:	1886d83a 	srl	r3,r3,r2
 10044f4:	9922983a 	sll	r17,r19,r4
 10044f8:	9120983a 	sll	r16,r18,r4
 10044fc:	1c62b03a 	or	r17,r3,r17
 1004500:	003fee06 	br	10044bc <__floatsidf+0xa4>
 1004504:	0009883a 	mov	r4,zero
 1004508:	01707834 	movhi	r5,49632
 100450c:	003fd306 	br	100445c <__floatsidf+0x44>

01004510 <__fixdfsi>:
 1004510:	defff804 	addi	sp,sp,-32
 1004514:	2005883a 	mov	r2,r4
 1004518:	2807883a 	mov	r3,r5
 100451c:	d809883a 	mov	r4,sp
 1004520:	d9400204 	addi	r5,sp,8
 1004524:	d8c00115 	stw	r3,4(sp)
 1004528:	d8800015 	stw	r2,0(sp)
 100452c:	dfc00715 	stw	ra,28(sp)
 1004530:	1004f2c0 	call	1004f2c <__unpack_d>
 1004534:	d8c00217 	ldw	r3,8(sp)
 1004538:	00800084 	movi	r2,2
 100453c:	1880051e 	bne	r3,r2,1004554 <__fixdfsi+0x44>
 1004540:	0007883a 	mov	r3,zero
 1004544:	1805883a 	mov	r2,r3
 1004548:	dfc00717 	ldw	ra,28(sp)
 100454c:	dec00804 	addi	sp,sp,32
 1004550:	f800283a 	ret
 1004554:	00800044 	movi	r2,1
 1004558:	10fff92e 	bgeu	r2,r3,1004540 <__fixdfsi+0x30>
 100455c:	00800104 	movi	r2,4
 1004560:	18800426 	beq	r3,r2,1004574 <__fixdfsi+0x64>
 1004564:	d8c00417 	ldw	r3,16(sp)
 1004568:	183ff516 	blt	r3,zero,1004540 <__fixdfsi+0x30>
 100456c:	00800784 	movi	r2,30
 1004570:	10c0080e 	bge	r2,r3,1004594 <__fixdfsi+0x84>
 1004574:	d8800317 	ldw	r2,12(sp)
 1004578:	1000121e 	bne	r2,zero,10045c4 <__fixdfsi+0xb4>
 100457c:	00e00034 	movhi	r3,32768
 1004580:	18ffffc4 	addi	r3,r3,-1
 1004584:	1805883a 	mov	r2,r3
 1004588:	dfc00717 	ldw	ra,28(sp)
 100458c:	dec00804 	addi	sp,sp,32
 1004590:	f800283a 	ret
 1004594:	00800f04 	movi	r2,60
 1004598:	10d1c83a 	sub	r8,r2,r3
 100459c:	40bff804 	addi	r2,r8,-32
 10045a0:	d9800517 	ldw	r6,20(sp)
 10045a4:	d9c00617 	ldw	r7,24(sp)
 10045a8:	10000816 	blt	r2,zero,10045cc <__fixdfsi+0xbc>
 10045ac:	3888d83a 	srl	r4,r7,r2
 10045b0:	d8800317 	ldw	r2,12(sp)
 10045b4:	2007883a 	mov	r3,r4
 10045b8:	103fe226 	beq	r2,zero,1004544 <__fixdfsi+0x34>
 10045bc:	0107c83a 	sub	r3,zero,r4
 10045c0:	003fe006 	br	1004544 <__fixdfsi+0x34>
 10045c4:	00e00034 	movhi	r3,32768
 10045c8:	003fde06 	br	1004544 <__fixdfsi+0x34>
 10045cc:	39c7883a 	add	r3,r7,r7
 10045d0:	008007c4 	movi	r2,31
 10045d4:	1205c83a 	sub	r2,r2,r8
 10045d8:	1886983a 	sll	r3,r3,r2
 10045dc:	3208d83a 	srl	r4,r6,r8
 10045e0:	1908b03a 	or	r4,r3,r4
 10045e4:	003ff206 	br	10045b0 <__fixdfsi+0xa0>

010045e8 <__make_dp>:
 10045e8:	defff904 	addi	sp,sp,-28
 10045ec:	d8c00717 	ldw	r3,28(sp)
 10045f0:	d9000015 	stw	r4,0(sp)
 10045f4:	d809883a 	mov	r4,sp
 10045f8:	dfc00515 	stw	ra,20(sp)
 10045fc:	d9c00615 	stw	r7,24(sp)
 1004600:	d9400115 	stw	r5,4(sp)
 1004604:	d9800215 	stw	r6,8(sp)
 1004608:	d8c00415 	stw	r3,16(sp)
 100460c:	d9c00315 	stw	r7,12(sp)
 1004610:	1004c180 	call	1004c18 <__pack_d>
 1004614:	dfc00517 	ldw	ra,20(sp)
 1004618:	dec00704 	addi	sp,sp,28
 100461c:	f800283a 	ret

01004620 <udivmodsi4>:
 1004620:	29001b2e 	bgeu	r5,r4,1004690 <udivmodsi4+0x70>
 1004624:	28001a16 	blt	r5,zero,1004690 <udivmodsi4+0x70>
 1004628:	00800044 	movi	r2,1
 100462c:	0007883a 	mov	r3,zero
 1004630:	01c007c4 	movi	r7,31
 1004634:	00000306 	br	1004644 <udivmodsi4+0x24>
 1004638:	19c01326 	beq	r3,r7,1004688 <udivmodsi4+0x68>
 100463c:	18c00044 	addi	r3,r3,1
 1004640:	28000416 	blt	r5,zero,1004654 <udivmodsi4+0x34>
 1004644:	294b883a 	add	r5,r5,r5
 1004648:	1085883a 	add	r2,r2,r2
 100464c:	293ffa36 	bltu	r5,r4,1004638 <udivmodsi4+0x18>
 1004650:	10000d26 	beq	r2,zero,1004688 <udivmodsi4+0x68>
 1004654:	0007883a 	mov	r3,zero
 1004658:	21400236 	bltu	r4,r5,1004664 <udivmodsi4+0x44>
 100465c:	2149c83a 	sub	r4,r4,r5
 1004660:	1886b03a 	or	r3,r3,r2
 1004664:	1004d07a 	srli	r2,r2,1
 1004668:	280ad07a 	srli	r5,r5,1
 100466c:	103ffa1e 	bne	r2,zero,1004658 <udivmodsi4+0x38>
 1004670:	30000226 	beq	r6,zero,100467c <udivmodsi4+0x5c>
 1004674:	2005883a 	mov	r2,r4
 1004678:	f800283a 	ret
 100467c:	1809883a 	mov	r4,r3
 1004680:	2005883a 	mov	r2,r4
 1004684:	f800283a 	ret
 1004688:	0007883a 	mov	r3,zero
 100468c:	003ff806 	br	1004670 <udivmodsi4+0x50>
 1004690:	00800044 	movi	r2,1
 1004694:	0007883a 	mov	r3,zero
 1004698:	003fef06 	br	1004658 <udivmodsi4+0x38>

0100469c <__divsi3>:
 100469c:	defffe04 	addi	sp,sp,-8
 10046a0:	dc000015 	stw	r16,0(sp)
 10046a4:	dfc00115 	stw	ra,4(sp)
 10046a8:	0021883a 	mov	r16,zero
 10046ac:	20000c16 	blt	r4,zero,10046e0 <__divsi3+0x44>
 10046b0:	000d883a 	mov	r6,zero
 10046b4:	28000e16 	blt	r5,zero,10046f0 <__divsi3+0x54>
 10046b8:	10046200 	call	1004620 <udivmodsi4>
 10046bc:	1007883a 	mov	r3,r2
 10046c0:	8005003a 	cmpeq	r2,r16,zero
 10046c4:	1000011e 	bne	r2,zero,10046cc <__divsi3+0x30>
 10046c8:	00c7c83a 	sub	r3,zero,r3
 10046cc:	1805883a 	mov	r2,r3
 10046d0:	dfc00117 	ldw	ra,4(sp)
 10046d4:	dc000017 	ldw	r16,0(sp)
 10046d8:	dec00204 	addi	sp,sp,8
 10046dc:	f800283a 	ret
 10046e0:	0109c83a 	sub	r4,zero,r4
 10046e4:	04000044 	movi	r16,1
 10046e8:	000d883a 	mov	r6,zero
 10046ec:	283ff20e 	bge	r5,zero,10046b8 <__divsi3+0x1c>
 10046f0:	014bc83a 	sub	r5,zero,r5
 10046f4:	8021003a 	cmpeq	r16,r16,zero
 10046f8:	003fef06 	br	10046b8 <__divsi3+0x1c>

010046fc <__modsi3>:
 10046fc:	deffff04 	addi	sp,sp,-4
 1004700:	dfc00015 	stw	ra,0(sp)
 1004704:	01800044 	movi	r6,1
 1004708:	2807883a 	mov	r3,r5
 100470c:	20000416 	blt	r4,zero,1004720 <__modsi3+0x24>
 1004710:	28000c16 	blt	r5,zero,1004744 <__modsi3+0x48>
 1004714:	dfc00017 	ldw	ra,0(sp)
 1004718:	dec00104 	addi	sp,sp,4
 100471c:	10046201 	jmpi	1004620 <udivmodsi4>
 1004720:	0109c83a 	sub	r4,zero,r4
 1004724:	28000b16 	blt	r5,zero,1004754 <__modsi3+0x58>
 1004728:	180b883a 	mov	r5,r3
 100472c:	01800044 	movi	r6,1
 1004730:	10046200 	call	1004620 <udivmodsi4>
 1004734:	0085c83a 	sub	r2,zero,r2
 1004738:	dfc00017 	ldw	ra,0(sp)
 100473c:	dec00104 	addi	sp,sp,4
 1004740:	f800283a 	ret
 1004744:	014bc83a 	sub	r5,zero,r5
 1004748:	dfc00017 	ldw	ra,0(sp)
 100474c:	dec00104 	addi	sp,sp,4
 1004750:	10046201 	jmpi	1004620 <udivmodsi4>
 1004754:	0147c83a 	sub	r3,zero,r5
 1004758:	003ff306 	br	1004728 <__modsi3+0x2c>

0100475c <__udivsi3>:
 100475c:	000d883a 	mov	r6,zero
 1004760:	10046201 	jmpi	1004620 <udivmodsi4>

01004764 <__umodsi3>:
 1004764:	01800044 	movi	r6,1
 1004768:	10046201 	jmpi	1004620 <udivmodsi4>

0100476c <__mulsi3>:
 100476c:	20000a26 	beq	r4,zero,1004798 <__mulsi3+0x2c>
 1004770:	0007883a 	mov	r3,zero
 1004774:	2080004c 	andi	r2,r4,1
 1004778:	1005003a 	cmpeq	r2,r2,zero
 100477c:	2008d07a 	srli	r4,r4,1
 1004780:	1000011e 	bne	r2,zero,1004788 <__mulsi3+0x1c>
 1004784:	1947883a 	add	r3,r3,r5
 1004788:	294b883a 	add	r5,r5,r5
 100478c:	203ff91e 	bne	r4,zero,1004774 <__mulsi3+0x8>
 1004790:	1805883a 	mov	r2,r3
 1004794:	f800283a 	ret
 1004798:	0007883a 	mov	r3,zero
 100479c:	1805883a 	mov	r2,r3
 10047a0:	f800283a 	ret

010047a4 <__muldi3>:
 10047a4:	defff204 	addi	sp,sp,-56
 10047a8:	df000c15 	stw	fp,48(sp)
 10047ac:	3038d43a 	srli	fp,r6,16
 10047b0:	dd000815 	stw	r20,32(sp)
 10047b4:	dc400515 	stw	r17,20(sp)
 10047b8:	2028d43a 	srli	r20,r4,16
 10047bc:	247fffcc 	andi	r17,r4,65535
 10047c0:	dc000415 	stw	r16,16(sp)
 10047c4:	343fffcc 	andi	r16,r6,65535
 10047c8:	dcc00715 	stw	r19,28(sp)
 10047cc:	d9000015 	stw	r4,0(sp)
 10047d0:	2827883a 	mov	r19,r5
 10047d4:	8809883a 	mov	r4,r17
 10047d8:	d9400115 	stw	r5,4(sp)
 10047dc:	800b883a 	mov	r5,r16
 10047e0:	d9800215 	stw	r6,8(sp)
 10047e4:	dfc00d15 	stw	ra,52(sp)
 10047e8:	d9c00315 	stw	r7,12(sp)
 10047ec:	dd800a15 	stw	r22,40(sp)
 10047f0:	dd400915 	stw	r21,36(sp)
 10047f4:	302d883a 	mov	r22,r6
 10047f8:	ddc00b15 	stw	r23,44(sp)
 10047fc:	dc800615 	stw	r18,24(sp)
 1004800:	100476c0 	call	100476c <__mulsi3>
 1004804:	8809883a 	mov	r4,r17
 1004808:	e00b883a 	mov	r5,fp
 100480c:	102b883a 	mov	r21,r2
 1004810:	100476c0 	call	100476c <__mulsi3>
 1004814:	800b883a 	mov	r5,r16
 1004818:	a009883a 	mov	r4,r20
 100481c:	1023883a 	mov	r17,r2
 1004820:	100476c0 	call	100476c <__mulsi3>
 1004824:	a009883a 	mov	r4,r20
 1004828:	e00b883a 	mov	r5,fp
 100482c:	1021883a 	mov	r16,r2
 1004830:	100476c0 	call	100476c <__mulsi3>
 1004834:	a8ffffcc 	andi	r3,r21,65535
 1004838:	a82ad43a 	srli	r21,r21,16
 100483c:	8c23883a 	add	r17,r17,r16
 1004840:	1011883a 	mov	r8,r2
 1004844:	ac6b883a 	add	r21,r21,r17
 1004848:	a804943a 	slli	r2,r21,16
 100484c:	b009883a 	mov	r4,r22
 1004850:	980b883a 	mov	r5,r19
 1004854:	10c7883a 	add	r3,r2,r3
 1004858:	a812d43a 	srli	r9,r21,16
 100485c:	180d883a 	mov	r6,r3
 1004860:	ac00022e 	bgeu	r21,r16,100486c <__muldi3+0xc8>
 1004864:	00800074 	movhi	r2,1
 1004868:	4091883a 	add	r8,r8,r2
 100486c:	4267883a 	add	r19,r8,r9
 1004870:	302d883a 	mov	r22,r6
 1004874:	100476c0 	call	100476c <__mulsi3>
 1004878:	d9400317 	ldw	r5,12(sp)
 100487c:	d9000017 	ldw	r4,0(sp)
 1004880:	1023883a 	mov	r17,r2
 1004884:	100476c0 	call	100476c <__mulsi3>
 1004888:	14cb883a 	add	r5,r2,r19
 100488c:	894b883a 	add	r5,r17,r5
 1004890:	b005883a 	mov	r2,r22
 1004894:	2807883a 	mov	r3,r5
 1004898:	dfc00d17 	ldw	ra,52(sp)
 100489c:	df000c17 	ldw	fp,48(sp)
 10048a0:	ddc00b17 	ldw	r23,44(sp)
 10048a4:	dd800a17 	ldw	r22,40(sp)
 10048a8:	dd400917 	ldw	r21,36(sp)
 10048ac:	dd000817 	ldw	r20,32(sp)
 10048b0:	dcc00717 	ldw	r19,28(sp)
 10048b4:	dc800617 	ldw	r18,24(sp)
 10048b8:	dc400517 	ldw	r17,20(sp)
 10048bc:	dc000417 	ldw	r16,16(sp)
 10048c0:	dec00e04 	addi	sp,sp,56
 10048c4:	f800283a 	ret

010048c8 <__clzsi2>:
 10048c8:	00bfffd4 	movui	r2,65535
 10048cc:	11000e36 	bltu	r2,r4,1004908 <__clzsi2+0x40>
 10048d0:	00803fc4 	movi	r2,255
 10048d4:	01400204 	movi	r5,8
 10048d8:	0007883a 	mov	r3,zero
 10048dc:	11001036 	bltu	r2,r4,1004920 <__clzsi2+0x58>
 10048e0:	000b883a 	mov	r5,zero
 10048e4:	20c6d83a 	srl	r3,r4,r3
 10048e8:	00804074 	movhi	r2,257
 10048ec:	1089b204 	addi	r2,r2,9928
 10048f0:	1887883a 	add	r3,r3,r2
 10048f4:	18800003 	ldbu	r2,0(r3)
 10048f8:	00c00804 	movi	r3,32
 10048fc:	2885883a 	add	r2,r5,r2
 1004900:	1885c83a 	sub	r2,r3,r2
 1004904:	f800283a 	ret
 1004908:	01400404 	movi	r5,16
 100490c:	00804034 	movhi	r2,256
 1004910:	10bfffc4 	addi	r2,r2,-1
 1004914:	2807883a 	mov	r3,r5
 1004918:	113ff22e 	bgeu	r2,r4,10048e4 <__clzsi2+0x1c>
 100491c:	01400604 	movi	r5,24
 1004920:	2807883a 	mov	r3,r5
 1004924:	20c6d83a 	srl	r3,r4,r3
 1004928:	00804074 	movhi	r2,257
 100492c:	1089b204 	addi	r2,r2,9928
 1004930:	1887883a 	add	r3,r3,r2
 1004934:	18800003 	ldbu	r2,0(r3)
 1004938:	00c00804 	movi	r3,32
 100493c:	2885883a 	add	r2,r5,r2
 1004940:	1885c83a 	sub	r2,r3,r2
 1004944:	f800283a 	ret

01004948 <__pack_f>:
 1004948:	20c00017 	ldw	r3,0(r4)
 100494c:	01c00044 	movi	r7,1
 1004950:	21800317 	ldw	r6,12(r4)
 1004954:	21400117 	ldw	r5,4(r4)
 1004958:	38c02d2e 	bgeu	r7,r3,1004a10 <__pack_f+0xc8>
 100495c:	00800104 	movi	r2,4
 1004960:	18802826 	beq	r3,r2,1004a04 <__pack_f+0xbc>
 1004964:	00800084 	movi	r2,2
 1004968:	18800126 	beq	r3,r2,1004970 <__pack_f+0x28>
 100496c:	3000101e 	bne	r6,zero,10049b0 <__pack_f+0x68>
 1004970:	000d883a 	mov	r6,zero
 1004974:	0007883a 	mov	r3,zero
 1004978:	19003fcc 	andi	r4,r3,255
 100497c:	200895fa 	slli	r4,r4,23
 1004980:	00c02034 	movhi	r3,128
 1004984:	18ffffc4 	addi	r3,r3,-1
 1004988:	30c6703a 	and	r3,r6,r3
 100498c:	10a0002c 	andhi	r2,r2,32768
 1004990:	10c4b03a 	or	r2,r2,r3
 1004994:	280a97fa 	slli	r5,r5,31
 1004998:	1104b03a 	or	r2,r2,r4
 100499c:	00e00034 	movhi	r3,32768
 10049a0:	18ffffc4 	addi	r3,r3,-1
 10049a4:	10c4703a 	and	r2,r2,r3
 10049a8:	1144b03a 	or	r2,r2,r5
 10049ac:	f800283a 	ret
 10049b0:	21000217 	ldw	r4,8(r4)
 10049b4:	00bfe084 	movi	r2,-126
 10049b8:	20801b16 	blt	r4,r2,1004a28 <__pack_f+0xe0>
 10049bc:	00801fc4 	movi	r2,127
 10049c0:	11001016 	blt	r2,r4,1004a04 <__pack_f+0xbc>
 10049c4:	308e703a 	and	r7,r6,r2
 10049c8:	2087883a 	add	r3,r4,r2
 10049cc:	00801004 	movi	r2,64
 10049d0:	38800526 	beq	r7,r2,10049e8 <__pack_f+0xa0>
 10049d4:	31800fc4 	addi	r6,r6,63
 10049d8:	30000716 	blt	r6,zero,10049f8 <__pack_f+0xb0>
 10049dc:	300490ba 	slli	r2,r6,2
 10049e0:	100cd27a 	srli	r6,r2,9
 10049e4:	003fe406 	br	1004978 <__pack_f+0x30>
 10049e8:	3080200c 	andi	r2,r6,128
 10049ec:	103ffa26 	beq	r2,zero,10049d8 <__pack_f+0x90>
 10049f0:	31cd883a 	add	r6,r6,r7
 10049f4:	003ff806 	br	10049d8 <__pack_f+0x90>
 10049f8:	300cd07a 	srli	r6,r6,1
 10049fc:	18c00044 	addi	r3,r3,1
 1004a00:	003ff606 	br	10049dc <__pack_f+0x94>
 1004a04:	000d883a 	mov	r6,zero
 1004a08:	00ffffc4 	movi	r3,-1
 1004a0c:	003fda06 	br	1004978 <__pack_f+0x30>
 1004a10:	31800434 	orhi	r6,r6,16
 1004a14:	00802034 	movhi	r2,128
 1004a18:	10bfffc4 	addi	r2,r2,-1
 1004a1c:	308c703a 	and	r6,r6,r2
 1004a20:	00ffffc4 	movi	r3,-1
 1004a24:	003fd406 	br	1004978 <__pack_f+0x30>
 1004a28:	1109c83a 	sub	r4,r2,r4
 1004a2c:	00800644 	movi	r2,25
 1004a30:	11001216 	blt	r2,r4,1004a7c <__pack_f+0x134>
 1004a34:	3904983a 	sll	r2,r7,r4
 1004a38:	3106d83a 	srl	r3,r6,r4
 1004a3c:	10bfffc4 	addi	r2,r2,-1
 1004a40:	3084703a 	and	r2,r6,r2
 1004a44:	1004c03a 	cmpne	r2,r2,zero
 1004a48:	1886b03a 	or	r3,r3,r2
 1004a4c:	19001fcc 	andi	r4,r3,127
 1004a50:	00801004 	movi	r2,64
 1004a54:	20800c26 	beq	r4,r2,1004a88 <__pack_f+0x140>
 1004a58:	18c00fc4 	addi	r3,r3,63
 1004a5c:	00900034 	movhi	r2,16384
 1004a60:	10bfffc4 	addi	r2,r2,-1
 1004a64:	180cd1fa 	srli	r6,r3,7
 1004a68:	10c7803a 	cmpltu	r3,r2,r3
 1004a6c:	00802034 	movhi	r2,128
 1004a70:	10bfffc4 	addi	r2,r2,-1
 1004a74:	308c703a 	and	r6,r6,r2
 1004a78:	003fbf06 	br	1004978 <__pack_f+0x30>
 1004a7c:	0007883a 	mov	r3,zero
 1004a80:	000d883a 	mov	r6,zero
 1004a84:	003ff906 	br	1004a6c <__pack_f+0x124>
 1004a88:	1880200c 	andi	r2,r3,128
 1004a8c:	10000126 	beq	r2,zero,1004a94 <__pack_f+0x14c>
 1004a90:	1907883a 	add	r3,r3,r4
 1004a94:	180cd1fa 	srli	r6,r3,7
 1004a98:	00900034 	movhi	r2,16384
 1004a9c:	10bfffc4 	addi	r2,r2,-1
 1004aa0:	10c7803a 	cmpltu	r3,r2,r3
 1004aa4:	003ff106 	br	1004a6c <__pack_f+0x124>

01004aa8 <__unpack_f>:
 1004aa8:	21800017 	ldw	r6,0(r4)
 1004aac:	00c02034 	movhi	r3,128
 1004ab0:	18ffffc4 	addi	r3,r3,-1
 1004ab4:	3004d5fa 	srli	r2,r6,23
 1004ab8:	3008d7fa 	srli	r4,r6,31
 1004abc:	30ce703a 	and	r7,r6,r3
 1004ac0:	10c03fcc 	andi	r3,r2,255
 1004ac4:	29000115 	stw	r4,4(r5)
 1004ac8:	1800131e 	bne	r3,zero,1004b18 <__unpack_f+0x70>
 1004acc:	38000f26 	beq	r7,zero,1004b0c <__unpack_f+0x64>
 1004ad0:	380691fa 	slli	r3,r7,7
 1004ad4:	01bfe084 	movi	r6,-126
 1004ad8:	008000c4 	movi	r2,3
 1004adc:	01100034 	movhi	r4,16384
 1004ae0:	213fffc4 	addi	r4,r4,-1
 1004ae4:	28800015 	stw	r2,0(r5)
 1004ae8:	29800215 	stw	r6,8(r5)
 1004aec:	20c00536 	bltu	r4,r3,1004b04 <__unpack_f+0x5c>
 1004af0:	3005883a 	mov	r2,r6
 1004af4:	18c7883a 	add	r3,r3,r3
 1004af8:	10bfffc4 	addi	r2,r2,-1
 1004afc:	20fffd2e 	bgeu	r4,r3,1004af4 <__unpack_f+0x4c>
 1004b00:	28800215 	stw	r2,8(r5)
 1004b04:	28c00315 	stw	r3,12(r5)
 1004b08:	f800283a 	ret
 1004b0c:	00800084 	movi	r2,2
 1004b10:	28800015 	stw	r2,0(r5)
 1004b14:	f800283a 	ret
 1004b18:	00803fc4 	movi	r2,255
 1004b1c:	18800826 	beq	r3,r2,1004b40 <__unpack_f+0x98>
 1004b20:	380491fa 	slli	r2,r7,7
 1004b24:	18ffe044 	addi	r3,r3,-127
 1004b28:	28c00215 	stw	r3,8(r5)
 1004b2c:	10900034 	orhi	r2,r2,16384
 1004b30:	28800315 	stw	r2,12(r5)
 1004b34:	008000c4 	movi	r2,3
 1004b38:	28800015 	stw	r2,0(r5)
 1004b3c:	f800283a 	ret
 1004b40:	3800031e 	bne	r7,zero,1004b50 <__unpack_f+0xa8>
 1004b44:	00800104 	movi	r2,4
 1004b48:	28800015 	stw	r2,0(r5)
 1004b4c:	f800283a 	ret
 1004b50:	3080042c 	andhi	r2,r6,16
 1004b54:	10000426 	beq	r2,zero,1004b68 <__unpack_f+0xc0>
 1004b58:	00800044 	movi	r2,1
 1004b5c:	28800015 	stw	r2,0(r5)
 1004b60:	29c00315 	stw	r7,12(r5)
 1004b64:	f800283a 	ret
 1004b68:	28000015 	stw	zero,0(r5)
 1004b6c:	003ffc06 	br	1004b60 <__unpack_f+0xb8>

01004b70 <__fpcmp_parts_f>:
 1004b70:	21800017 	ldw	r6,0(r4)
 1004b74:	00c00044 	movi	r3,1
 1004b78:	19800a2e 	bgeu	r3,r6,1004ba4 <__fpcmp_parts_f+0x34>
 1004b7c:	28800017 	ldw	r2,0(r5)
 1004b80:	1880082e 	bgeu	r3,r2,1004ba4 <__fpcmp_parts_f+0x34>
 1004b84:	00c00104 	movi	r3,4
 1004b88:	30c01e26 	beq	r6,r3,1004c04 <__fpcmp_parts_f+0x94>
 1004b8c:	10c01a26 	beq	r2,r3,1004bf8 <__fpcmp_parts_f+0x88>
 1004b90:	00c00084 	movi	r3,2
 1004b94:	30c00526 	beq	r6,r3,1004bac <__fpcmp_parts_f+0x3c>
 1004b98:	10c0071e 	bne	r2,r3,1004bb8 <__fpcmp_parts_f+0x48>
 1004b9c:	20800117 	ldw	r2,4(r4)
 1004ba0:	1000091e 	bne	r2,zero,1004bc8 <__fpcmp_parts_f+0x58>
 1004ba4:	00800044 	movi	r2,1
 1004ba8:	f800283a 	ret
 1004bac:	10c0121e 	bne	r2,r3,1004bf8 <__fpcmp_parts_f+0x88>
 1004bb0:	0005883a 	mov	r2,zero
 1004bb4:	f800283a 	ret
 1004bb8:	20c00117 	ldw	r3,4(r4)
 1004bbc:	28800117 	ldw	r2,4(r5)
 1004bc0:	18800326 	beq	r3,r2,1004bd0 <__fpcmp_parts_f+0x60>
 1004bc4:	183ff726 	beq	r3,zero,1004ba4 <__fpcmp_parts_f+0x34>
 1004bc8:	00bfffc4 	movi	r2,-1
 1004bcc:	f800283a 	ret
 1004bd0:	21800217 	ldw	r6,8(r4)
 1004bd4:	28800217 	ldw	r2,8(r5)
 1004bd8:	11bffa16 	blt	r2,r6,1004bc4 <__fpcmp_parts_f+0x54>
 1004bdc:	30800416 	blt	r6,r2,1004bf0 <__fpcmp_parts_f+0x80>
 1004be0:	21000317 	ldw	r4,12(r4)
 1004be4:	29400317 	ldw	r5,12(r5)
 1004be8:	293ff636 	bltu	r5,r4,1004bc4 <__fpcmp_parts_f+0x54>
 1004bec:	217ff02e 	bgeu	r4,r5,1004bb0 <__fpcmp_parts_f+0x40>
 1004bf0:	183fec1e 	bne	r3,zero,1004ba4 <__fpcmp_parts_f+0x34>
 1004bf4:	003ff406 	br	1004bc8 <__fpcmp_parts_f+0x58>
 1004bf8:	28800117 	ldw	r2,4(r5)
 1004bfc:	103fe91e 	bne	r2,zero,1004ba4 <__fpcmp_parts_f+0x34>
 1004c00:	003ff106 	br	1004bc8 <__fpcmp_parts_f+0x58>
 1004c04:	11bfe51e 	bne	r2,r6,1004b9c <__fpcmp_parts_f+0x2c>
 1004c08:	28c00117 	ldw	r3,4(r5)
 1004c0c:	20800117 	ldw	r2,4(r4)
 1004c10:	1885c83a 	sub	r2,r3,r2
 1004c14:	f800283a 	ret

01004c18 <__pack_d>:
 1004c18:	20c00017 	ldw	r3,0(r4)
 1004c1c:	defffd04 	addi	sp,sp,-12
 1004c20:	dc000015 	stw	r16,0(sp)
 1004c24:	dc800215 	stw	r18,8(sp)
 1004c28:	dc400115 	stw	r17,4(sp)
 1004c2c:	00800044 	movi	r2,1
 1004c30:	22000317 	ldw	r8,12(r4)
 1004c34:	001f883a 	mov	r15,zero
 1004c38:	22400417 	ldw	r9,16(r4)
 1004c3c:	24000117 	ldw	r16,4(r4)
 1004c40:	10c0552e 	bgeu	r2,r3,1004d98 <__pack_d+0x180>
 1004c44:	00800104 	movi	r2,4
 1004c48:	18804f26 	beq	r3,r2,1004d88 <__pack_d+0x170>
 1004c4c:	00800084 	movi	r2,2
 1004c50:	18800226 	beq	r3,r2,1004c5c <__pack_d+0x44>
 1004c54:	4244b03a 	or	r2,r8,r9
 1004c58:	10001a1e 	bne	r2,zero,1004cc4 <__pack_d+0xac>
 1004c5c:	000d883a 	mov	r6,zero
 1004c60:	000f883a 	mov	r7,zero
 1004c64:	0011883a 	mov	r8,zero
 1004c68:	00800434 	movhi	r2,16
 1004c6c:	10bfffc4 	addi	r2,r2,-1
 1004c70:	301d883a 	mov	r14,r6
 1004c74:	3884703a 	and	r2,r7,r2
 1004c78:	400a953a 	slli	r5,r8,20
 1004c7c:	79bffc2c 	andhi	r6,r15,65520
 1004c80:	308cb03a 	or	r6,r6,r2
 1004c84:	00e00434 	movhi	r3,32784
 1004c88:	18ffffc4 	addi	r3,r3,-1
 1004c8c:	800497fa 	slli	r2,r16,31
 1004c90:	30c6703a 	and	r3,r6,r3
 1004c94:	1946b03a 	or	r3,r3,r5
 1004c98:	01600034 	movhi	r5,32768
 1004c9c:	297fffc4 	addi	r5,r5,-1
 1004ca0:	194a703a 	and	r5,r3,r5
 1004ca4:	288ab03a 	or	r5,r5,r2
 1004ca8:	2807883a 	mov	r3,r5
 1004cac:	7005883a 	mov	r2,r14
 1004cb0:	dc800217 	ldw	r18,8(sp)
 1004cb4:	dc400117 	ldw	r17,4(sp)
 1004cb8:	dc000017 	ldw	r16,0(sp)
 1004cbc:	dec00304 	addi	sp,sp,12
 1004cc0:	f800283a 	ret
 1004cc4:	21000217 	ldw	r4,8(r4)
 1004cc8:	00bf0084 	movi	r2,-1022
 1004ccc:	20803f16 	blt	r4,r2,1004dcc <__pack_d+0x1b4>
 1004cd0:	0080ffc4 	movi	r2,1023
 1004cd4:	11002c16 	blt	r2,r4,1004d88 <__pack_d+0x170>
 1004cd8:	00803fc4 	movi	r2,255
 1004cdc:	408c703a 	and	r6,r8,r2
 1004ce0:	00802004 	movi	r2,128
 1004ce4:	0007883a 	mov	r3,zero
 1004ce8:	000f883a 	mov	r7,zero
 1004cec:	2280ffc4 	addi	r10,r4,1023
 1004cf0:	30801e26 	beq	r6,r2,1004d6c <__pack_d+0x154>
 1004cf4:	00801fc4 	movi	r2,127
 1004cf8:	4089883a 	add	r4,r8,r2
 1004cfc:	220d803a 	cmpltu	r6,r4,r8
 1004d00:	324d883a 	add	r6,r6,r9
 1004d04:	2011883a 	mov	r8,r4
 1004d08:	3013883a 	mov	r9,r6
 1004d0c:	00880034 	movhi	r2,8192
 1004d10:	10bfffc4 	addi	r2,r2,-1
 1004d14:	12400d36 	bltu	r2,r9,1004d4c <__pack_d+0x134>
 1004d18:	4804963a 	slli	r2,r9,24
 1004d1c:	400cd23a 	srli	r6,r8,8
 1004d20:	480ed23a 	srli	r7,r9,8
 1004d24:	013fffc4 	movi	r4,-1
 1004d28:	118cb03a 	or	r6,r2,r6
 1004d2c:	01400434 	movhi	r5,16
 1004d30:	297fffc4 	addi	r5,r5,-1
 1004d34:	3104703a 	and	r2,r6,r4
 1004d38:	3946703a 	and	r3,r7,r5
 1004d3c:	5201ffcc 	andi	r8,r10,2047
 1004d40:	100d883a 	mov	r6,r2
 1004d44:	180f883a 	mov	r7,r3
 1004d48:	003fc706 	br	1004c68 <__pack_d+0x50>
 1004d4c:	480897fa 	slli	r4,r9,31
 1004d50:	4004d07a 	srli	r2,r8,1
 1004d54:	4806d07a 	srli	r3,r9,1
 1004d58:	52800044 	addi	r10,r10,1
 1004d5c:	2084b03a 	or	r2,r4,r2
 1004d60:	1011883a 	mov	r8,r2
 1004d64:	1813883a 	mov	r9,r3
 1004d68:	003feb06 	br	1004d18 <__pack_d+0x100>
 1004d6c:	383fe11e 	bne	r7,zero,1004cf4 <__pack_d+0xdc>
 1004d70:	01004004 	movi	r4,256
 1004d74:	4104703a 	and	r2,r8,r4
 1004d78:	10c4b03a 	or	r2,r2,r3
 1004d7c:	103fe326 	beq	r2,zero,1004d0c <__pack_d+0xf4>
 1004d80:	3005883a 	mov	r2,r6
 1004d84:	003fdc06 	br	1004cf8 <__pack_d+0xe0>
 1004d88:	000d883a 	mov	r6,zero
 1004d8c:	000f883a 	mov	r7,zero
 1004d90:	0201ffc4 	movi	r8,2047
 1004d94:	003fb406 	br	1004c68 <__pack_d+0x50>
 1004d98:	0005883a 	mov	r2,zero
 1004d9c:	00c00234 	movhi	r3,8
 1004da0:	408cb03a 	or	r6,r8,r2
 1004da4:	48ceb03a 	or	r7,r9,r3
 1004da8:	013fffc4 	movi	r4,-1
 1004dac:	01400434 	movhi	r5,16
 1004db0:	297fffc4 	addi	r5,r5,-1
 1004db4:	3104703a 	and	r2,r6,r4
 1004db8:	3946703a 	and	r3,r7,r5
 1004dbc:	100d883a 	mov	r6,r2
 1004dc0:	180f883a 	mov	r7,r3
 1004dc4:	0201ffc4 	movi	r8,2047
 1004dc8:	003fa706 	br	1004c68 <__pack_d+0x50>
 1004dcc:	1109c83a 	sub	r4,r2,r4
 1004dd0:	00800e04 	movi	r2,56
 1004dd4:	11004316 	blt	r2,r4,1004ee4 <__pack_d+0x2cc>
 1004dd8:	21fff804 	addi	r7,r4,-32
 1004ddc:	38004516 	blt	r7,zero,1004ef4 <__pack_d+0x2dc>
 1004de0:	49d8d83a 	srl	r12,r9,r7
 1004de4:	001b883a 	mov	r13,zero
 1004de8:	0023883a 	mov	r17,zero
 1004dec:	01400044 	movi	r5,1
 1004df0:	0025883a 	mov	r18,zero
 1004df4:	38004716 	blt	r7,zero,1004f14 <__pack_d+0x2fc>
 1004df8:	29d6983a 	sll	r11,r5,r7
 1004dfc:	0015883a 	mov	r10,zero
 1004e00:	00bfffc4 	movi	r2,-1
 1004e04:	5089883a 	add	r4,r10,r2
 1004e08:	588b883a 	add	r5,r11,r2
 1004e0c:	228d803a 	cmpltu	r6,r4,r10
 1004e10:	314b883a 	add	r5,r6,r5
 1004e14:	4104703a 	and	r2,r8,r4
 1004e18:	4946703a 	and	r3,r9,r5
 1004e1c:	10c4b03a 	or	r2,r2,r3
 1004e20:	10000226 	beq	r2,zero,1004e2c <__pack_d+0x214>
 1004e24:	04400044 	movi	r17,1
 1004e28:	0025883a 	mov	r18,zero
 1004e2c:	00803fc4 	movi	r2,255
 1004e30:	644eb03a 	or	r7,r12,r17
 1004e34:	3892703a 	and	r9,r7,r2
 1004e38:	00802004 	movi	r2,128
 1004e3c:	6c90b03a 	or	r8,r13,r18
 1004e40:	0015883a 	mov	r10,zero
 1004e44:	48801626 	beq	r9,r2,1004ea0 <__pack_d+0x288>
 1004e48:	01001fc4 	movi	r4,127
 1004e4c:	3905883a 	add	r2,r7,r4
 1004e50:	11cd803a 	cmpltu	r6,r2,r7
 1004e54:	320d883a 	add	r6,r6,r8
 1004e58:	100f883a 	mov	r7,r2
 1004e5c:	00840034 	movhi	r2,4096
 1004e60:	10bfffc4 	addi	r2,r2,-1
 1004e64:	3011883a 	mov	r8,r6
 1004e68:	0007883a 	mov	r3,zero
 1004e6c:	11801b36 	bltu	r2,r6,1004edc <__pack_d+0x2c4>
 1004e70:	4004963a 	slli	r2,r8,24
 1004e74:	3808d23a 	srli	r4,r7,8
 1004e78:	400ad23a 	srli	r5,r8,8
 1004e7c:	1813883a 	mov	r9,r3
 1004e80:	1108b03a 	or	r4,r2,r4
 1004e84:	00bfffc4 	movi	r2,-1
 1004e88:	00c00434 	movhi	r3,16
 1004e8c:	18ffffc4 	addi	r3,r3,-1
 1004e90:	208c703a 	and	r6,r4,r2
 1004e94:	28ce703a 	and	r7,r5,r3
 1004e98:	4a01ffcc 	andi	r8,r9,2047
 1004e9c:	003f7206 	br	1004c68 <__pack_d+0x50>
 1004ea0:	503fe91e 	bne	r10,zero,1004e48 <__pack_d+0x230>
 1004ea4:	01004004 	movi	r4,256
 1004ea8:	3904703a 	and	r2,r7,r4
 1004eac:	0007883a 	mov	r3,zero
 1004eb0:	10c4b03a 	or	r2,r2,r3
 1004eb4:	10000626 	beq	r2,zero,1004ed0 <__pack_d+0x2b8>
 1004eb8:	3a45883a 	add	r2,r7,r9
 1004ebc:	11cd803a 	cmpltu	r6,r2,r7
 1004ec0:	320d883a 	add	r6,r6,r8
 1004ec4:	100f883a 	mov	r7,r2
 1004ec8:	3011883a 	mov	r8,r6
 1004ecc:	0007883a 	mov	r3,zero
 1004ed0:	00840034 	movhi	r2,4096
 1004ed4:	10bfffc4 	addi	r2,r2,-1
 1004ed8:	123fe52e 	bgeu	r2,r8,1004e70 <__pack_d+0x258>
 1004edc:	00c00044 	movi	r3,1
 1004ee0:	003fe306 	br	1004e70 <__pack_d+0x258>
 1004ee4:	0009883a 	mov	r4,zero
 1004ee8:	0013883a 	mov	r9,zero
 1004eec:	000b883a 	mov	r5,zero
 1004ef0:	003fe406 	br	1004e84 <__pack_d+0x26c>
 1004ef4:	4a47883a 	add	r3,r9,r9
 1004ef8:	008007c4 	movi	r2,31
 1004efc:	1105c83a 	sub	r2,r2,r4
 1004f00:	1886983a 	sll	r3,r3,r2
 1004f04:	4118d83a 	srl	r12,r8,r4
 1004f08:	491ad83a 	srl	r13,r9,r4
 1004f0c:	1b18b03a 	or	r12,r3,r12
 1004f10:	003fb506 	br	1004de8 <__pack_d+0x1d0>
 1004f14:	2806d07a 	srli	r3,r5,1
 1004f18:	008007c4 	movi	r2,31
 1004f1c:	1105c83a 	sub	r2,r2,r4
 1004f20:	1896d83a 	srl	r11,r3,r2
 1004f24:	2914983a 	sll	r10,r5,r4
 1004f28:	003fb506 	br	1004e00 <__pack_d+0x1e8>

01004f2c <__unpack_d>:
 1004f2c:	20c00117 	ldw	r3,4(r4)
 1004f30:	22400017 	ldw	r9,0(r4)
 1004f34:	00800434 	movhi	r2,16
 1004f38:	10bfffc4 	addi	r2,r2,-1
 1004f3c:	1808d53a 	srli	r4,r3,20
 1004f40:	180cd7fa 	srli	r6,r3,31
 1004f44:	1894703a 	and	r10,r3,r2
 1004f48:	2201ffcc 	andi	r8,r4,2047
 1004f4c:	281b883a 	mov	r13,r5
 1004f50:	4817883a 	mov	r11,r9
 1004f54:	29800115 	stw	r6,4(r5)
 1004f58:	5019883a 	mov	r12,r10
 1004f5c:	40001e1e 	bne	r8,zero,1004fd8 <__unpack_d+0xac>
 1004f60:	4a84b03a 	or	r2,r9,r10
 1004f64:	10001926 	beq	r2,zero,1004fcc <__unpack_d+0xa0>
 1004f68:	4804d63a 	srli	r2,r9,24
 1004f6c:	500c923a 	slli	r6,r10,8
 1004f70:	013f0084 	movi	r4,-1022
 1004f74:	00c40034 	movhi	r3,4096
 1004f78:	18ffffc4 	addi	r3,r3,-1
 1004f7c:	118cb03a 	or	r6,r2,r6
 1004f80:	008000c4 	movi	r2,3
 1004f84:	480a923a 	slli	r5,r9,8
 1004f88:	68800015 	stw	r2,0(r13)
 1004f8c:	69000215 	stw	r4,8(r13)
 1004f90:	19800b36 	bltu	r3,r6,1004fc0 <__unpack_d+0x94>
 1004f94:	200f883a 	mov	r7,r4
 1004f98:	1811883a 	mov	r8,r3
 1004f9c:	2945883a 	add	r2,r5,r5
 1004fa0:	1149803a 	cmpltu	r4,r2,r5
 1004fa4:	3187883a 	add	r3,r6,r6
 1004fa8:	20c9883a 	add	r4,r4,r3
 1004fac:	100b883a 	mov	r5,r2
 1004fb0:	200d883a 	mov	r6,r4
 1004fb4:	39ffffc4 	addi	r7,r7,-1
 1004fb8:	413ff82e 	bgeu	r8,r4,1004f9c <__unpack_d+0x70>
 1004fbc:	69c00215 	stw	r7,8(r13)
 1004fc0:	69800415 	stw	r6,16(r13)
 1004fc4:	69400315 	stw	r5,12(r13)
 1004fc8:	f800283a 	ret
 1004fcc:	00800084 	movi	r2,2
 1004fd0:	28800015 	stw	r2,0(r5)
 1004fd4:	f800283a 	ret
 1004fd8:	0081ffc4 	movi	r2,2047
 1004fdc:	40800f26 	beq	r8,r2,100501c <__unpack_d+0xf0>
 1004fe0:	480cd63a 	srli	r6,r9,24
 1004fe4:	5006923a 	slli	r3,r10,8
 1004fe8:	4804923a 	slli	r2,r9,8
 1004fec:	0009883a 	mov	r4,zero
 1004ff0:	30c6b03a 	or	r3,r6,r3
 1004ff4:	01440034 	movhi	r5,4096
 1004ff8:	110cb03a 	or	r6,r2,r4
 1004ffc:	423f0044 	addi	r8,r8,-1023
 1005000:	194eb03a 	or	r7,r3,r5
 1005004:	008000c4 	movi	r2,3
 1005008:	69c00415 	stw	r7,16(r13)
 100500c:	6a000215 	stw	r8,8(r13)
 1005010:	68800015 	stw	r2,0(r13)
 1005014:	69800315 	stw	r6,12(r13)
 1005018:	f800283a 	ret
 100501c:	4a84b03a 	or	r2,r9,r10
 1005020:	1000031e 	bne	r2,zero,1005030 <__unpack_d+0x104>
 1005024:	00800104 	movi	r2,4
 1005028:	28800015 	stw	r2,0(r5)
 100502c:	f800283a 	ret
 1005030:	0009883a 	mov	r4,zero
 1005034:	01400234 	movhi	r5,8
 1005038:	4904703a 	and	r2,r9,r4
 100503c:	5146703a 	and	r3,r10,r5
 1005040:	10c4b03a 	or	r2,r2,r3
 1005044:	10000526 	beq	r2,zero,100505c <__unpack_d+0x130>
 1005048:	00800044 	movi	r2,1
 100504c:	68800015 	stw	r2,0(r13)
 1005050:	6b000415 	stw	r12,16(r13)
 1005054:	6ac00315 	stw	r11,12(r13)
 1005058:	f800283a 	ret
 100505c:	68000015 	stw	zero,0(r13)
 1005060:	003ffb06 	br	1005050 <__unpack_d+0x124>

01005064 <__fpcmp_parts_d>:
 1005064:	21800017 	ldw	r6,0(r4)
 1005068:	00c00044 	movi	r3,1
 100506c:	19800a2e 	bgeu	r3,r6,1005098 <__fpcmp_parts_d+0x34>
 1005070:	28800017 	ldw	r2,0(r5)
 1005074:	1880082e 	bgeu	r3,r2,1005098 <__fpcmp_parts_d+0x34>
 1005078:	00c00104 	movi	r3,4
 100507c:	30c02626 	beq	r6,r3,1005118 <__fpcmp_parts_d+0xb4>
 1005080:	10c02226 	beq	r2,r3,100510c <__fpcmp_parts_d+0xa8>
 1005084:	00c00084 	movi	r3,2
 1005088:	30c00526 	beq	r6,r3,10050a0 <__fpcmp_parts_d+0x3c>
 100508c:	10c0071e 	bne	r2,r3,10050ac <__fpcmp_parts_d+0x48>
 1005090:	20800117 	ldw	r2,4(r4)
 1005094:	1000091e 	bne	r2,zero,10050bc <__fpcmp_parts_d+0x58>
 1005098:	00800044 	movi	r2,1
 100509c:	f800283a 	ret
 10050a0:	10c01a1e 	bne	r2,r3,100510c <__fpcmp_parts_d+0xa8>
 10050a4:	0005883a 	mov	r2,zero
 10050a8:	f800283a 	ret
 10050ac:	22000117 	ldw	r8,4(r4)
 10050b0:	28800117 	ldw	r2,4(r5)
 10050b4:	40800326 	beq	r8,r2,10050c4 <__fpcmp_parts_d+0x60>
 10050b8:	403ff726 	beq	r8,zero,1005098 <__fpcmp_parts_d+0x34>
 10050bc:	00bfffc4 	movi	r2,-1
 10050c0:	f800283a 	ret
 10050c4:	20c00217 	ldw	r3,8(r4)
 10050c8:	28800217 	ldw	r2,8(r5)
 10050cc:	10fffa16 	blt	r2,r3,10050b8 <__fpcmp_parts_d+0x54>
 10050d0:	18800916 	blt	r3,r2,10050f8 <__fpcmp_parts_d+0x94>
 10050d4:	21c00417 	ldw	r7,16(r4)
 10050d8:	28c00417 	ldw	r3,16(r5)
 10050dc:	21800317 	ldw	r6,12(r4)
 10050e0:	28800317 	ldw	r2,12(r5)
 10050e4:	19fff436 	bltu	r3,r7,10050b8 <__fpcmp_parts_d+0x54>
 10050e8:	38c00526 	beq	r7,r3,1005100 <__fpcmp_parts_d+0x9c>
 10050ec:	38c00236 	bltu	r7,r3,10050f8 <__fpcmp_parts_d+0x94>
 10050f0:	19ffec1e 	bne	r3,r7,10050a4 <__fpcmp_parts_d+0x40>
 10050f4:	30bfeb2e 	bgeu	r6,r2,10050a4 <__fpcmp_parts_d+0x40>
 10050f8:	403fe71e 	bne	r8,zero,1005098 <__fpcmp_parts_d+0x34>
 10050fc:	003fef06 	br	10050bc <__fpcmp_parts_d+0x58>
 1005100:	11bffa2e 	bgeu	r2,r6,10050ec <__fpcmp_parts_d+0x88>
 1005104:	403fe426 	beq	r8,zero,1005098 <__fpcmp_parts_d+0x34>
 1005108:	003fec06 	br	10050bc <__fpcmp_parts_d+0x58>
 100510c:	28800117 	ldw	r2,4(r5)
 1005110:	103fe11e 	bne	r2,zero,1005098 <__fpcmp_parts_d+0x34>
 1005114:	003fe906 	br	10050bc <__fpcmp_parts_d+0x58>
 1005118:	11bfdd1e 	bne	r2,r6,1005090 <__fpcmp_parts_d+0x2c>
 100511c:	28c00117 	ldw	r3,4(r5)
 1005120:	20800117 	ldw	r2,4(r4)
 1005124:	1885c83a 	sub	r2,r3,r2
 1005128:	f800283a 	ret

0100512c <free>:
 100512c:	00804074 	movhi	r2,257
 1005130:	10915704 	addi	r2,r2,17756
 1005134:	200b883a 	mov	r5,r4
 1005138:	11000017 	ldw	r4,0(r2)
 100513c:	10099681 	jmpi	1009968 <_free_r>

01005140 <malloc>:
 1005140:	00804074 	movhi	r2,257
 1005144:	10915704 	addi	r2,r2,17756
 1005148:	200b883a 	mov	r5,r4
 100514c:	11000017 	ldw	r4,0(r2)
 1005150:	10051541 	jmpi	1005154 <_malloc_r>

01005154 <_malloc_r>:
 1005154:	defff604 	addi	sp,sp,-40
 1005158:	28c002c4 	addi	r3,r5,11
 100515c:	00800584 	movi	r2,22
 1005160:	dc800215 	stw	r18,8(sp)
 1005164:	dfc00915 	stw	ra,36(sp)
 1005168:	df000815 	stw	fp,32(sp)
 100516c:	ddc00715 	stw	r23,28(sp)
 1005170:	dd800615 	stw	r22,24(sp)
 1005174:	dd400515 	stw	r21,20(sp)
 1005178:	dd000415 	stw	r20,16(sp)
 100517c:	dcc00315 	stw	r19,12(sp)
 1005180:	dc400115 	stw	r17,4(sp)
 1005184:	dc000015 	stw	r16,0(sp)
 1005188:	2025883a 	mov	r18,r4
 100518c:	10c01236 	bltu	r2,r3,10051d8 <_malloc_r+0x84>
 1005190:	04400404 	movi	r17,16
 1005194:	8940142e 	bgeu	r17,r5,10051e8 <_malloc_r+0x94>
 1005198:	00800304 	movi	r2,12
 100519c:	0007883a 	mov	r3,zero
 10051a0:	90800015 	stw	r2,0(r18)
 10051a4:	1805883a 	mov	r2,r3
 10051a8:	dfc00917 	ldw	ra,36(sp)
 10051ac:	df000817 	ldw	fp,32(sp)
 10051b0:	ddc00717 	ldw	r23,28(sp)
 10051b4:	dd800617 	ldw	r22,24(sp)
 10051b8:	dd400517 	ldw	r21,20(sp)
 10051bc:	dd000417 	ldw	r20,16(sp)
 10051c0:	dcc00317 	ldw	r19,12(sp)
 10051c4:	dc800217 	ldw	r18,8(sp)
 10051c8:	dc400117 	ldw	r17,4(sp)
 10051cc:	dc000017 	ldw	r16,0(sp)
 10051d0:	dec00a04 	addi	sp,sp,40
 10051d4:	f800283a 	ret
 10051d8:	00bffe04 	movi	r2,-8
 10051dc:	18a2703a 	and	r17,r3,r2
 10051e0:	883fed16 	blt	r17,zero,1005198 <_malloc_r+0x44>
 10051e4:	897fec36 	bltu	r17,r5,1005198 <_malloc_r+0x44>
 10051e8:	9009883a 	mov	r4,r18
 10051ec:	100dde80 	call	100dde8 <__malloc_lock>
 10051f0:	00807dc4 	movi	r2,503
 10051f4:	14402b2e 	bgeu	r2,r17,10052a4 <_malloc_r+0x150>
 10051f8:	8806d27a 	srli	r3,r17,9
 10051fc:	18003f1e 	bne	r3,zero,10052fc <_malloc_r+0x1a8>
 1005200:	880cd0fa 	srli	r6,r17,3
 1005204:	300490fa 	slli	r2,r6,3
 1005208:	02c04074 	movhi	r11,257
 100520c:	5aca9c04 	addi	r11,r11,10864
 1005210:	12cb883a 	add	r5,r2,r11
 1005214:	2c000317 	ldw	r16,12(r5)
 1005218:	580f883a 	mov	r7,r11
 100521c:	2c00041e 	bne	r5,r16,1005230 <_malloc_r+0xdc>
 1005220:	00000a06 	br	100524c <_malloc_r+0xf8>
 1005224:	1800860e 	bge	r3,zero,1005440 <_malloc_r+0x2ec>
 1005228:	84000317 	ldw	r16,12(r16)
 100522c:	2c000726 	beq	r5,r16,100524c <_malloc_r+0xf8>
 1005230:	80800117 	ldw	r2,4(r16)
 1005234:	00ffff04 	movi	r3,-4
 1005238:	10c8703a 	and	r4,r2,r3
 100523c:	2447c83a 	sub	r3,r4,r17
 1005240:	008003c4 	movi	r2,15
 1005244:	10fff70e 	bge	r2,r3,1005224 <_malloc_r+0xd0>
 1005248:	31bfffc4 	addi	r6,r6,-1
 100524c:	32400044 	addi	r9,r6,1
 1005250:	02804074 	movhi	r10,257
 1005254:	528a9e04 	addi	r10,r10,10872
 1005258:	54000217 	ldw	r16,8(r10)
 100525c:	8280a026 	beq	r16,r10,10054e0 <_malloc_r+0x38c>
 1005260:	80800117 	ldw	r2,4(r16)
 1005264:	00ffff04 	movi	r3,-4
 1005268:	10ca703a 	and	r5,r2,r3
 100526c:	2c4dc83a 	sub	r6,r5,r17
 1005270:	008003c4 	movi	r2,15
 1005274:	11808316 	blt	r2,r6,1005484 <_malloc_r+0x330>
 1005278:	52800315 	stw	r10,12(r10)
 100527c:	52800215 	stw	r10,8(r10)
 1005280:	30002916 	blt	r6,zero,1005328 <_malloc_r+0x1d4>
 1005284:	8147883a 	add	r3,r16,r5
 1005288:	18800117 	ldw	r2,4(r3)
 100528c:	9009883a 	mov	r4,r18
 1005290:	10800054 	ori	r2,r2,1
 1005294:	18800115 	stw	r2,4(r3)
 1005298:	100de080 	call	100de08 <__malloc_unlock>
 100529c:	80c00204 	addi	r3,r16,8
 10052a0:	003fc006 	br	10051a4 <_malloc_r+0x50>
 10052a4:	02c04074 	movhi	r11,257
 10052a8:	5aca9c04 	addi	r11,r11,10864
 10052ac:	8ac5883a 	add	r2,r17,r11
 10052b0:	14000317 	ldw	r16,12(r2)
 10052b4:	580f883a 	mov	r7,r11
 10052b8:	8806d0fa 	srli	r3,r17,3
 10052bc:	14006c26 	beq	r2,r16,1005470 <_malloc_r+0x31c>
 10052c0:	80c00117 	ldw	r3,4(r16)
 10052c4:	00bfff04 	movi	r2,-4
 10052c8:	81800317 	ldw	r6,12(r16)
 10052cc:	1886703a 	and	r3,r3,r2
 10052d0:	80c7883a 	add	r3,r16,r3
 10052d4:	18800117 	ldw	r2,4(r3)
 10052d8:	81400217 	ldw	r5,8(r16)
 10052dc:	9009883a 	mov	r4,r18
 10052e0:	10800054 	ori	r2,r2,1
 10052e4:	18800115 	stw	r2,4(r3)
 10052e8:	31400215 	stw	r5,8(r6)
 10052ec:	29800315 	stw	r6,12(r5)
 10052f0:	100de080 	call	100de08 <__malloc_unlock>
 10052f4:	80c00204 	addi	r3,r16,8
 10052f8:	003faa06 	br	10051a4 <_malloc_r+0x50>
 10052fc:	00800104 	movi	r2,4
 1005300:	10c0052e 	bgeu	r2,r3,1005318 <_malloc_r+0x1c4>
 1005304:	00800504 	movi	r2,20
 1005308:	10c07836 	bltu	r2,r3,10054ec <_malloc_r+0x398>
 100530c:	198016c4 	addi	r6,r3,91
 1005310:	300490fa 	slli	r2,r6,3
 1005314:	003fbc06 	br	1005208 <_malloc_r+0xb4>
 1005318:	8804d1ba 	srli	r2,r17,6
 100531c:	11800e04 	addi	r6,r2,56
 1005320:	300490fa 	slli	r2,r6,3
 1005324:	003fb806 	br	1005208 <_malloc_r+0xb4>
 1005328:	00807fc4 	movi	r2,511
 100532c:	1140bb36 	bltu	r2,r5,100561c <_malloc_r+0x4c8>
 1005330:	2806d0fa 	srli	r3,r5,3
 1005334:	573ffe04 	addi	fp,r10,-8
 1005338:	00800044 	movi	r2,1
 100533c:	180890fa 	slli	r4,r3,3
 1005340:	1807d0ba 	srai	r3,r3,2
 1005344:	e1c00117 	ldw	r7,4(fp)
 1005348:	5909883a 	add	r4,r11,r4
 100534c:	21400217 	ldw	r5,8(r4)
 1005350:	10c4983a 	sll	r2,r2,r3
 1005354:	81000315 	stw	r4,12(r16)
 1005358:	81400215 	stw	r5,8(r16)
 100535c:	388eb03a 	or	r7,r7,r2
 1005360:	2c000315 	stw	r16,12(r5)
 1005364:	24000215 	stw	r16,8(r4)
 1005368:	e1c00115 	stw	r7,4(fp)
 100536c:	4807883a 	mov	r3,r9
 1005370:	4800cd16 	blt	r9,zero,10056a8 <_malloc_r+0x554>
 1005374:	1807d0ba 	srai	r3,r3,2
 1005378:	00800044 	movi	r2,1
 100537c:	10c8983a 	sll	r4,r2,r3
 1005380:	39004436 	bltu	r7,r4,1005494 <_malloc_r+0x340>
 1005384:	21c4703a 	and	r2,r4,r7
 1005388:	10000a1e 	bne	r2,zero,10053b4 <_malloc_r+0x260>
 100538c:	2109883a 	add	r4,r4,r4
 1005390:	00bfff04 	movi	r2,-4
 1005394:	4884703a 	and	r2,r9,r2
 1005398:	3906703a 	and	r3,r7,r4
 100539c:	12400104 	addi	r9,r2,4
 10053a0:	1800041e 	bne	r3,zero,10053b4 <_malloc_r+0x260>
 10053a4:	2109883a 	add	r4,r4,r4
 10053a8:	3904703a 	and	r2,r7,r4
 10053ac:	4a400104 	addi	r9,r9,4
 10053b0:	103ffc26 	beq	r2,zero,10053a4 <_malloc_r+0x250>
 10053b4:	480490fa 	slli	r2,r9,3
 10053b8:	4819883a 	mov	r12,r9
 10053bc:	023fff04 	movi	r8,-4
 10053c0:	589b883a 	add	r13,r11,r2
 10053c4:	6807883a 	mov	r3,r13
 10053c8:	014003c4 	movi	r5,15
 10053cc:	1c000317 	ldw	r16,12(r3)
 10053d0:	1c00041e 	bne	r3,r16,10053e4 <_malloc_r+0x290>
 10053d4:	0000a706 	br	1005674 <_malloc_r+0x520>
 10053d8:	3000ab0e 	bge	r6,zero,1005688 <_malloc_r+0x534>
 10053dc:	84000317 	ldw	r16,12(r16)
 10053e0:	1c00a426 	beq	r3,r16,1005674 <_malloc_r+0x520>
 10053e4:	80800117 	ldw	r2,4(r16)
 10053e8:	1204703a 	and	r2,r2,r8
 10053ec:	144dc83a 	sub	r6,r2,r17
 10053f0:	29bff90e 	bge	r5,r6,10053d8 <_malloc_r+0x284>
 10053f4:	81000317 	ldw	r4,12(r16)
 10053f8:	80c00217 	ldw	r3,8(r16)
 10053fc:	89400054 	ori	r5,r17,1
 1005400:	8445883a 	add	r2,r16,r17
 1005404:	20c00215 	stw	r3,8(r4)
 1005408:	19000315 	stw	r4,12(r3)
 100540c:	81400115 	stw	r5,4(r16)
 1005410:	1187883a 	add	r3,r2,r6
 1005414:	31000054 	ori	r4,r6,1
 1005418:	50800315 	stw	r2,12(r10)
 100541c:	50800215 	stw	r2,8(r10)
 1005420:	19800015 	stw	r6,0(r3)
 1005424:	11000115 	stw	r4,4(r2)
 1005428:	12800215 	stw	r10,8(r2)
 100542c:	12800315 	stw	r10,12(r2)
 1005430:	9009883a 	mov	r4,r18
 1005434:	100de080 	call	100de08 <__malloc_unlock>
 1005438:	80c00204 	addi	r3,r16,8
 100543c:	003f5906 	br	10051a4 <_malloc_r+0x50>
 1005440:	8109883a 	add	r4,r16,r4
 1005444:	20800117 	ldw	r2,4(r4)
 1005448:	80c00217 	ldw	r3,8(r16)
 100544c:	81400317 	ldw	r5,12(r16)
 1005450:	10800054 	ori	r2,r2,1
 1005454:	20800115 	stw	r2,4(r4)
 1005458:	28c00215 	stw	r3,8(r5)
 100545c:	19400315 	stw	r5,12(r3)
 1005460:	9009883a 	mov	r4,r18
 1005464:	100de080 	call	100de08 <__malloc_unlock>
 1005468:	80c00204 	addi	r3,r16,8
 100546c:	003f4d06 	br	10051a4 <_malloc_r+0x50>
 1005470:	80800204 	addi	r2,r16,8
 1005474:	14000317 	ldw	r16,12(r2)
 1005478:	143f911e 	bne	r2,r16,10052c0 <_malloc_r+0x16c>
 100547c:	1a400084 	addi	r9,r3,2
 1005480:	003f7306 	br	1005250 <_malloc_r+0xfc>
 1005484:	88c00054 	ori	r3,r17,1
 1005488:	8445883a 	add	r2,r16,r17
 100548c:	80c00115 	stw	r3,4(r16)
 1005490:	003fdf06 	br	1005410 <_malloc_r+0x2bc>
 1005494:	e4000217 	ldw	r16,8(fp)
 1005498:	00bfff04 	movi	r2,-4
 100549c:	80c00117 	ldw	r3,4(r16)
 10054a0:	802d883a 	mov	r22,r16
 10054a4:	18aa703a 	and	r21,r3,r2
 10054a8:	ac401636 	bltu	r21,r17,1005504 <_malloc_r+0x3b0>
 10054ac:	ac49c83a 	sub	r4,r21,r17
 10054b0:	008003c4 	movi	r2,15
 10054b4:	1100130e 	bge	r2,r4,1005504 <_malloc_r+0x3b0>
 10054b8:	88800054 	ori	r2,r17,1
 10054bc:	8447883a 	add	r3,r16,r17
 10054c0:	80800115 	stw	r2,4(r16)
 10054c4:	20800054 	ori	r2,r4,1
 10054c8:	18800115 	stw	r2,4(r3)
 10054cc:	e0c00215 	stw	r3,8(fp)
 10054d0:	9009883a 	mov	r4,r18
 10054d4:	100de080 	call	100de08 <__malloc_unlock>
 10054d8:	80c00204 	addi	r3,r16,8
 10054dc:	003f3106 	br	10051a4 <_malloc_r+0x50>
 10054e0:	39c00117 	ldw	r7,4(r7)
 10054e4:	573ffe04 	addi	fp,r10,-8
 10054e8:	003fa006 	br	100536c <_malloc_r+0x218>
 10054ec:	00801504 	movi	r2,84
 10054f0:	10c06736 	bltu	r2,r3,1005690 <_malloc_r+0x53c>
 10054f4:	8804d33a 	srli	r2,r17,12
 10054f8:	11801b84 	addi	r6,r2,110
 10054fc:	300490fa 	slli	r2,r6,3
 1005500:	003f4106 	br	1005208 <_malloc_r+0xb4>
 1005504:	d0a6d917 	ldw	r2,-25756(gp)
 1005508:	d0e00117 	ldw	r3,-32764(gp)
 100550c:	053fffc4 	movi	r20,-1
 1005510:	10800404 	addi	r2,r2,16
 1005514:	88a7883a 	add	r19,r17,r2
 1005518:	1d000326 	beq	r3,r20,1005528 <_malloc_r+0x3d4>
 100551c:	98c3ffc4 	addi	r3,r19,4095
 1005520:	00bc0004 	movi	r2,-4096
 1005524:	18a6703a 	and	r19,r3,r2
 1005528:	9009883a 	mov	r4,r18
 100552c:	980b883a 	mov	r5,r19
 1005530:	10059c00 	call	10059c0 <_sbrk_r>
 1005534:	1009883a 	mov	r4,r2
 1005538:	15000426 	beq	r2,r20,100554c <_malloc_r+0x3f8>
 100553c:	854b883a 	add	r5,r16,r21
 1005540:	1029883a 	mov	r20,r2
 1005544:	11405a2e 	bgeu	r2,r5,10056b0 <_malloc_r+0x55c>
 1005548:	87000c26 	beq	r16,fp,100557c <_malloc_r+0x428>
 100554c:	e4000217 	ldw	r16,8(fp)
 1005550:	80c00117 	ldw	r3,4(r16)
 1005554:	00bfff04 	movi	r2,-4
 1005558:	1884703a 	and	r2,r3,r2
 100555c:	14400336 	bltu	r2,r17,100556c <_malloc_r+0x418>
 1005560:	1449c83a 	sub	r4,r2,r17
 1005564:	008003c4 	movi	r2,15
 1005568:	113fd316 	blt	r2,r4,10054b8 <_malloc_r+0x364>
 100556c:	9009883a 	mov	r4,r18
 1005570:	100de080 	call	100de08 <__malloc_unlock>
 1005574:	0007883a 	mov	r3,zero
 1005578:	003f0a06 	br	10051a4 <_malloc_r+0x50>
 100557c:	05c04074 	movhi	r23,257
 1005580:	bdd83b04 	addi	r23,r23,24812
 1005584:	b8800017 	ldw	r2,0(r23)
 1005588:	988d883a 	add	r6,r19,r2
 100558c:	b9800015 	stw	r6,0(r23)
 1005590:	d0e00117 	ldw	r3,-32764(gp)
 1005594:	00bfffc4 	movi	r2,-1
 1005598:	18808e26 	beq	r3,r2,10057d4 <_malloc_r+0x680>
 100559c:	2145c83a 	sub	r2,r4,r5
 10055a0:	3085883a 	add	r2,r6,r2
 10055a4:	b8800015 	stw	r2,0(r23)
 10055a8:	20c001cc 	andi	r3,r4,7
 10055ac:	18005f1e 	bne	r3,zero,100572c <_malloc_r+0x5d8>
 10055b0:	000b883a 	mov	r5,zero
 10055b4:	a4c5883a 	add	r2,r20,r19
 10055b8:	1083ffcc 	andi	r2,r2,4095
 10055bc:	00c40004 	movi	r3,4096
 10055c0:	1887c83a 	sub	r3,r3,r2
 10055c4:	28e7883a 	add	r19,r5,r3
 10055c8:	9009883a 	mov	r4,r18
 10055cc:	980b883a 	mov	r5,r19
 10055d0:	10059c00 	call	10059c0 <_sbrk_r>
 10055d4:	1007883a 	mov	r3,r2
 10055d8:	00bfffc4 	movi	r2,-1
 10055dc:	18807a26 	beq	r3,r2,10057c8 <_malloc_r+0x674>
 10055e0:	1d05c83a 	sub	r2,r3,r20
 10055e4:	9885883a 	add	r2,r19,r2
 10055e8:	10c00054 	ori	r3,r2,1
 10055ec:	b8800017 	ldw	r2,0(r23)
 10055f0:	a021883a 	mov	r16,r20
 10055f4:	a0c00115 	stw	r3,4(r20)
 10055f8:	9885883a 	add	r2,r19,r2
 10055fc:	b8800015 	stw	r2,0(r23)
 1005600:	e5000215 	stw	r20,8(fp)
 1005604:	b7003626 	beq	r22,fp,10056e0 <_malloc_r+0x58c>
 1005608:	018003c4 	movi	r6,15
 100560c:	35404b36 	bltu	r6,r21,100573c <_malloc_r+0x5e8>
 1005610:	00800044 	movi	r2,1
 1005614:	a0800115 	stw	r2,4(r20)
 1005618:	003fcd06 	br	1005550 <_malloc_r+0x3fc>
 100561c:	2808d27a 	srli	r4,r5,9
 1005620:	2000371e 	bne	r4,zero,1005700 <_malloc_r+0x5ac>
 1005624:	2808d0fa 	srli	r4,r5,3
 1005628:	200690fa 	slli	r3,r4,3
 100562c:	1ad1883a 	add	r8,r3,r11
 1005630:	41800217 	ldw	r6,8(r8)
 1005634:	41805b26 	beq	r8,r6,10057a4 <_malloc_r+0x650>
 1005638:	30800117 	ldw	r2,4(r6)
 100563c:	00ffff04 	movi	r3,-4
 1005640:	10c4703a 	and	r2,r2,r3
 1005644:	2880022e 	bgeu	r5,r2,1005650 <_malloc_r+0x4fc>
 1005648:	31800217 	ldw	r6,8(r6)
 100564c:	41bffa1e 	bne	r8,r6,1005638 <_malloc_r+0x4e4>
 1005650:	32000317 	ldw	r8,12(r6)
 1005654:	39c00117 	ldw	r7,4(r7)
 1005658:	82000315 	stw	r8,12(r16)
 100565c:	81800215 	stw	r6,8(r16)
 1005660:	07004074 	movhi	fp,257
 1005664:	e70a9c04 	addi	fp,fp,10864
 1005668:	34000315 	stw	r16,12(r6)
 100566c:	44000215 	stw	r16,8(r8)
 1005670:	003f3e06 	br	100536c <_malloc_r+0x218>
 1005674:	63000044 	addi	r12,r12,1
 1005678:	608000cc 	andi	r2,r12,3
 100567c:	10005d26 	beq	r2,zero,10057f4 <_malloc_r+0x6a0>
 1005680:	18c00204 	addi	r3,r3,8
 1005684:	003f5106 	br	10053cc <_malloc_r+0x278>
 1005688:	8089883a 	add	r4,r16,r2
 100568c:	003f6d06 	br	1005444 <_malloc_r+0x2f0>
 1005690:	00805504 	movi	r2,340
 1005694:	10c02036 	bltu	r2,r3,1005718 <_malloc_r+0x5c4>
 1005698:	8804d3fa 	srli	r2,r17,15
 100569c:	11801dc4 	addi	r6,r2,119
 10056a0:	300490fa 	slli	r2,r6,3
 10056a4:	003ed806 	br	1005208 <_malloc_r+0xb4>
 10056a8:	48c000c4 	addi	r3,r9,3
 10056ac:	003f3106 	br	1005374 <_malloc_r+0x220>
 10056b0:	05c04074 	movhi	r23,257
 10056b4:	bdd83b04 	addi	r23,r23,24812
 10056b8:	b8800017 	ldw	r2,0(r23)
 10056bc:	988d883a 	add	r6,r19,r2
 10056c0:	b9800015 	stw	r6,0(r23)
 10056c4:	293fb21e 	bne	r5,r4,1005590 <_malloc_r+0x43c>
